
rop:     file format elf32-tradbigmips


Disassembly of section .init:

00400264 <_init>:
  400264:	3c1c000a 	lui	gp,0xa
  400268:	279ca04c 	addiu	gp,gp,-24500
  40026c:	0399e021 	addu	gp,gp,t9
  400270:	27bdffe0 	addiu	sp,sp,-32
  400274:	afbc0010 	sw	gp,16(sp)
  400278:	afbf001c 	sw	ra,28(sp)
  40027c:	8f82831c 	lw	v0,-31972(gp)
  400280:	10400004 	beqz	v0,400294 <_init+0x30>
  400284:	00000000 	nop
  400288:	8f99831c 	lw	t9,-31972(gp)
  40028c:	0320f809 	jalr	t9
  400290:	00000000 	nop
  400294:	04110001 	bal	40029c <_init+0x38>
  400298:	00000000 	nop
  40029c:	3c1c004a 	lui	gp,0x4a
  4002a0:	279ca2b0 	addiu	gp,gp,-23888
  4002a4:	8f998030 	lw	t9,-32720(gp)
  4002a8:	2739075c 	addiu	t9,t9,1884
  4002ac:	0320f809 	jalr	t9
  4002b0:	00000000 	nop
  4002b4:	04110001 	bal	4002bc <_init+0x58>
  4002b8:	00000000 	nop
  4002bc:	3c1c004a 	lui	gp,0x4a
  4002c0:	279ca2b0 	addiu	gp,gp,-23888
  4002c4:	8f998034 	lw	t9,-32716(gp)
  4002c8:	273943c0 	addiu	t9,t9,17344
  4002cc:	0320f809 	jalr	t9
  4002d0:	00000000 	nop
  4002d4:	8fbf001c 	lw	ra,28(sp)
  4002d8:	03e00008 	jr	ra
  4002dc:	27bd0020 	addiu	sp,sp,32

Disassembly of section .text:

004002e0 <abort>:
  4002e0:	3c1c004a 	lui	gp,0x4a
  4002e4:	27bdfeb8 	addiu	sp,sp,-328
  4002e8:	279ca2b0 	addiu	gp,gp,-23888
  4002ec:	afbf0144 	sw	ra,324(sp)
  4002f0:	8f828038 	lw	v0,-32712(gp)
  4002f4:	afb30140 	sw	s3,320(sp)
  4002f8:	afb2013c 	sw	s2,316(sp)
  4002fc:	afb10138 	sw	s1,312(sp)
  400300:	afb00134 	sw	s0,308(sp)
  400304:	afbc0010 	sw	gp,16(sp)
  400308:	8c420000 	lw	v0,0(v0)
  40030c:	afa2012c 	sw	v0,300(sp)
  400310:	7c03e83b 	rdhwr	v1,$29
  400314:	3c110049 	lui	s1,0x49
  400318:	24728b70 	addiu	s2,v1,-29840
  40031c:	26302a84 	addiu	s0,s1,10884
  400320:	8e020008 	lw	v0,8(s0)
  400324:	10520011 	beq	v0,s2,40036c <abort+0x8c>
  400328:	3c030049 	lui	v1,0x49
  40032c:	c2232a84 	ll	v1,10884(s1)
  400330:	14600006 	bnez	v1,40034c <abort+0x6c>
  400334:	24020000 	li	v0,0
  400338:	24010001 	li	at,1
  40033c:	e2212a84 	sc	at,10884(s1)
  400340:	1020fffa 	beqz	at,40032c <abort+0x4c>
  400344:	24020001 	li	v0,1
  400348:	0000000f 	sync
  40034c:	14400005 	bnez	v0,400364 <abort+0x84>
  400350:	3c190041 	lui	t9,0x41
  400354:	27392550 	addiu	t9,t9,9552
  400358:	0411487d 	bal	412550 <__lll_lock_wait_private>
  40035c:	02002025 	move	a0,s0
  400360:	8fbc0010 	lw	gp,16(sp)
  400364:	ae120008 	sw	s2,8(s0)
  400368:	3c030049 	lui	v1,0x49
  40036c:	8e020004 	lw	v0,4(s0)
  400370:	00609025 	move	s2,v1
  400374:	8c632a90 	lw	v1,10896(v1)
  400378:	24420001 	addiu	v0,v0,1
  40037c:	14600013 	bnez	v1,4003cc <abort+0xec>
  400380:	ae020004 	sw	v0,4(s0)
  400384:	27a2001c 	addiu	v0,sp,28
  400388:	24030001 	li	v1,1
  40038c:	27a4ff98 	addiu	a0,sp,-104
  400390:	ae432a90 	sw	v1,10896(s2)
  400394:	00402825 	move	a1,v0
  400398:	2442fffc 	addiu	v0,v0,-4
  40039c:	10440003 	beq	v0,a0,4003ac <abort+0xcc>
  4003a0:	3c190043 	lui	t9,0x43
  4003a4:	1000fffc 	b	400398 <abort+0xb8>
  4003a8:	ac400080 	sw	zero,128(v0)
  4003ac:	8fa2001c 	lw	v0,28(sp)
  4003b0:	00003025 	move	a2,zero
  4003b4:	24040002 	li	a0,2
  4003b8:	34420020 	ori	v0,v0,0x20
  4003bc:	2739f5f0 	addiu	t9,t9,-2576
  4003c0:	0320f809 	jalr	t9
  4003c4:	afa2001c 	sw	v0,28(sp)
  4003c8:	8fbc0010 	lw	gp,16(sp)
  4003cc:	8e422a90 	lw	v0,10896(s2)
  4003d0:	24030001 	li	v1,1
  4003d4:	14430033 	bne	v0,v1,4004a4 <abort+0x1c4>
  4003d8:	00000000 	nop
  4003dc:	8e020004 	lw	v0,4(s0)
  4003e0:	ae402a90 	sw	zero,10896(s2)
  4003e4:	2442ffff 	addiu	v0,v0,-1
  4003e8:	14400011 	bnez	v0,400430 <abort+0x150>
  4003ec:	ae020004 	sw	v0,4(s0)
  4003f0:	ae000008 	sw	zero,8(s0)
  4003f4:	0000000f 	sync
  4003f8:	c2222a84 	ll	v0,10884(s1)
  4003fc:	24010000 	li	at,0
  400400:	e2212a84 	sc	at,10884(s1)
  400404:	1020fffc 	beqz	at,4003f8 <abort+0x118>
  400408:	00000000 	nop
  40040c:	28420002 	slti	v0,v0,2
  400410:	14400008 	bnez	v0,400434 <abort+0x154>
  400414:	3c190040 	lui	t9,0x40
  400418:	02002025 	move	a0,s0
  40041c:	24050081 	li	a1,129
  400420:	24060001 	li	a2,1
  400424:	00003825 	move	a3,zero
  400428:	2402108e 	li	v0,4238
  40042c:	0000000c 	syscall
  400430:	3c190040 	lui	t9,0x40
  400434:	273967a0 	addiu	t9,t9,26528
  400438:	041118d9 	bal	4067a0 <raise>
  40043c:	24040006 	li	a0,6
  400440:	8fbc0010 	lw	gp,16(sp)
  400444:	7c03e83b 	rdhwr	v1,$29
  400448:	8e020008 	lw	v0,8(s0)
  40044c:	24738b70 	addiu	s3,v1,-29840
  400450:	10530010 	beq	v0,s3,400494 <abort+0x1b4>
  400454:	00000000 	nop
  400458:	c2232a84 	ll	v1,10884(s1)
  40045c:	14600006 	bnez	v1,400478 <abort+0x198>
  400460:	24020000 	li	v0,0
  400464:	24010001 	li	at,1
  400468:	e2212a84 	sc	at,10884(s1)
  40046c:	1020fffa 	beqz	at,400458 <abort+0x178>
  400470:	24020001 	li	v0,1
  400474:	0000000f 	sync
  400478:	14400005 	bnez	v0,400490 <abort+0x1b0>
  40047c:	3c190041 	lui	t9,0x41
  400480:	27392550 	addiu	t9,t9,9552
  400484:	04114832 	bal	412550 <__lll_lock_wait_private>
  400488:	02002025 	move	a0,s0
  40048c:	8fbc0010 	lw	gp,16(sp)
  400490:	ae130008 	sw	s3,8(s0)
  400494:	8e020004 	lw	v0,4(s0)
  400498:	24420001 	addiu	v0,v0,1
  40049c:	10000004 	b	4004b0 <abort+0x1d0>
  4004a0:	ae020004 	sw	v0,4(s0)
  4004a4:	24030002 	li	v1,2
  4004a8:	14430018 	bne	v0,v1,40050c <abort+0x22c>
  4004ac:	8e432a90 	lw	v1,10896(s2)
  4004b0:	8f99803c 	lw	t9,-32708(gp)
  4004b4:	24020003 	li	v0,3
  4004b8:	24060088 	li	a2,136
  4004bc:	00002825 	move	a1,zero
  4004c0:	ae422a90 	sw	v0,10896(s2)
  4004c4:	27a400a4 	addiu	a0,sp,164
  4004c8:	041169ed 	bal	41ac80 <memset>
  4004cc:	27b0009c 	addiu	s0,sp,156
  4004d0:	27a20120 	addiu	v0,sp,288
  4004d4:	2403ffff 	li	v1,-1
  4004d8:	afa000a0 	sw	zero,160(sp)
  4004dc:	2442fffc 	addiu	v0,v0,-4
  4004e0:	12020003 	beq	s0,v0,4004f0 <abort+0x210>
  4004e4:	3c190043 	lui	t9,0x43
  4004e8:	1000fffc 	b	4004dc <abort+0x1fc>
  4004ec:	ac430004 	sw	v1,4(v0)
  4004f0:	afa0009c 	sw	zero,156(sp)
  4004f4:	00003025 	move	a2,zero
  4004f8:	24040006 	li	a0,6
  4004fc:	2739f59c 	addiu	t9,t9,-2660
  400500:	0320f809 	jalr	t9
  400504:	02002825 	move	a1,s0
  400508:	8e432a90 	lw	v1,10896(s2)
  40050c:	24020003 	li	v0,3
  400510:	14620008 	bne	v1,v0,400534 <abort+0x254>
  400514:	8e432a90 	lw	v1,10896(s2)
  400518:	3c190040 	lui	t9,0x40
  40051c:	24020004 	li	v0,4
  400520:	24040006 	li	a0,6
  400524:	273967a0 	addiu	t9,t9,26528
  400528:	0411189d 	bal	4067a0 <raise>
  40052c:	ae422a90 	sw	v0,10896(s2)
  400530:	8e432a90 	lw	v1,10896(s2)
  400534:	24020004 	li	v0,4
  400538:	14620005 	bne	v1,v0,400550 <abort+0x270>
  40053c:	8e432a90 	lw	v1,10896(s2)
  400540:	24020005 	li	v0,5
  400544:	ae422a90 	sw	v0,10896(s2)
  400548:	00ff000d 	break	0xff
  40054c:	8e432a90 	lw	v1,10896(s2)
  400550:	24020005 	li	v0,5
  400554:	14620006 	bne	v1,v0,400570 <abort+0x290>
  400558:	3c190042 	lui	t9,0x42
  40055c:	24020006 	li	v0,6
  400560:	2404007f 	li	a0,127
  400564:	2739c340 	addiu	t9,t9,-15552
  400568:	04116f75 	bal	41c340 <_exit>
  40056c:	ae422a90 	sw	v0,10896(s2)
  400570:	00ff000d 	break	0xff
  400574:	1000fffe 	b	400570 <abort+0x290>
  400578:	00000000 	nop

0040057c <_dl_start>:
  40057c:	3c190040 	lui	t9,0x40
  400580:	27bdffe0 	addiu	sp,sp,-32
  400584:	273902e0 	addiu	t9,t9,736
  400588:	afbf001c 	sw	ra,28(sp)
  40058c:	0411ff54 	bal	4002e0 <abort>
  400590:	00000000 	nop

00400594 <fini>:
  400594:	3c040049 	lui	a0,0x49
  400598:	081154b3 	j	4552cc <check_free.isra.0>
  40059c:	24842fac 	addiu	a0,a0,12204

004005a0 <__start>:
  4005a0:	03e00025 	move	zero,ra
  4005a4:	04110001 	bal	4005ac <__start+0xc>
  4005a8:	00000000 	nop
  4005ac:	3c1c004a 	lui	gp,0x4a
  4005b0:	279ca2b0 	addiu	gp,gp,-23888
  4005b4:	0000f825 	move	ra,zero
  4005b8:	8f848018 	lw	a0,-32744(gp)
  4005bc:	8fa50000 	lw	a1,0(sp)
  4005c0:	27a60004 	addiu	a2,sp,4
  4005c4:	2401fff8 	li	at,-8
  4005c8:	03a1e824 	and	sp,sp,at
  4005cc:	27bdffe0 	addiu	sp,sp,-32
  4005d0:	8f87801c 	lw	a3,-32740(gp)
  4005d4:	8f888020 	lw	t0,-32736(gp)
  4005d8:	afa80010 	sw	t0,16(sp)
  4005dc:	afa20014 	sw	v0,20(sp)
  4005e0:	afbd0018 	sw	sp,24(sp)
  4005e4:	8f998024 	lw	t9,-32732(gp)
  4005e8:	0320f809 	jalr	t9
  4005ec:	00000000 	nop

004005f0 <hlt>:
  4005f0:	1000ffff 	b	4005f0 <hlt>
  4005f4:	00000000 	nop
	...

00400600 <deregister_tm_clones>:
  400600:	3c040049 	lui	a0,0x49
  400604:	3c020049 	lui	v0,0x49
  400608:	24841fa0 	addiu	a0,a0,8096
  40060c:	24421fa0 	addiu	v0,v0,8096
  400610:	10440007 	beq	v0,a0,400630 <deregister_tm_clones+0x30>
  400614:	3c1c004a 	lui	gp,0x4a
  400618:	279ca2b0 	addiu	gp,gp,-23888
  40061c:	8f99834c 	lw	t9,-31924(gp)
  400620:	13200003 	beqz	t9,400630 <deregister_tm_clones+0x30>
  400624:	00000000 	nop
  400628:	03200008 	jr	t9
  40062c:	00000000 	nop
  400630:	03e00008 	jr	ra
  400634:	00000000 	nop

00400638 <register_tm_clones>:
  400638:	3c040049 	lui	a0,0x49
  40063c:	3c020049 	lui	v0,0x49
  400640:	24841fa0 	addiu	a0,a0,8096
  400644:	24421fa0 	addiu	v0,v0,8096
  400648:	00441023 	subu	v0,v0,a0
  40064c:	00021883 	sra	v1,v0,0x2
  400650:	00022fc2 	srl	a1,v0,0x1f
  400654:	00a32821 	addu	a1,a1,v1
  400658:	00052843 	sra	a1,a1,0x1
  40065c:	10a00007 	beqz	a1,40067c <register_tm_clones+0x44>
  400660:	3c1c004a 	lui	gp,0x4a
  400664:	279ca2b0 	addiu	gp,gp,-23888
  400668:	8f998360 	lw	t9,-31904(gp)
  40066c:	13200003 	beqz	t9,40067c <register_tm_clones+0x44>
  400670:	00000000 	nop
  400674:	03200008 	jr	t9
  400678:	00000000 	nop
  40067c:	03e00008 	jr	ra
  400680:	00000000 	nop

00400684 <__do_global_dtors_aux>:
  400684:	27bdffd0 	addiu	sp,sp,-48
  400688:	3c1c004a 	lui	gp,0x4a
  40068c:	afb30028 	sw	s3,40(sp)
  400690:	3c130049 	lui	s3,0x49
  400694:	279ca2b0 	addiu	gp,gp,-23888
  400698:	afbf002c 	sw	ra,44(sp)
  40069c:	afb20024 	sw	s2,36(sp)
  4006a0:	afb10020 	sw	s1,32(sp)
  4006a4:	afb0001c 	sw	s0,28(sp)
  4006a8:	afbc0010 	sw	gp,16(sp)
  4006ac:	92622790 	lbu	v0,10128(s3)
  4006b0:	14400023 	bnez	v0,400740 <__do_global_dtors_aux+0xbc>
  4006b4:	3c110049 	lui	s1,0x49
  4006b8:	3c020049 	lui	v0,0x49
  4006bc:	2631e944 	addiu	s1,s1,-5820
  4006c0:	2442e940 	addiu	v0,v0,-5824
  4006c4:	3c100049 	lui	s0,0x49
  4006c8:	02228823 	subu	s1,s1,v0
  4006cc:	3c020049 	lui	v0,0x49
  4006d0:	00118883 	sra	s1,s1,0x2
  4006d4:	2452e940 	addiu	s2,v0,-5824
  4006d8:	8e022794 	lw	v0,10132(s0)
  4006dc:	2631ffff 	addiu	s1,s1,-1
  4006e0:	0051182b 	sltu	v1,v0,s1
  4006e4:	1060000b 	beqz	v1,400714 <__do_global_dtors_aux+0x90>
  4006e8:	24420001 	addiu	v0,v0,1
  4006ec:	00021880 	sll	v1,v0,0x2
  4006f0:	ae022794 	sw	v0,10132(s0)
  4006f4:	02431021 	addu	v0,s2,v1
  4006f8:	8c590000 	lw	t9,0(v0)
  4006fc:	0320f809 	jalr	t9
  400700:	00000000 	nop
  400704:	8e022794 	lw	v0,10132(s0)
  400708:	0051182b 	sltu	v1,v0,s1
  40070c:	1460fff7 	bnez	v1,4006ec <__do_global_dtors_aux+0x68>
  400710:	24420001 	addiu	v0,v0,1
  400714:	0c100180 	jal	400600 <deregister_tm_clones>
  400718:	00000000 	nop
  40071c:	8fbc0010 	lw	gp,16(sp)
  400720:	8f828028 	lw	v0,-32728(gp)
  400724:	10400004 	beqz	v0,400738 <__do_global_dtors_aux+0xb4>
  400728:	8f998028 	lw	t9,-32728(gp)
  40072c:	3c040048 	lui	a0,0x48
  400730:	0320f809 	jalr	t9
  400734:	2484b1e0 	addiu	a0,a0,-20000
  400738:	24020001 	li	v0,1
  40073c:	a2622790 	sb	v0,10128(s3)
  400740:	8fbf002c 	lw	ra,44(sp)
  400744:	8fb30028 	lw	s3,40(sp)
  400748:	8fb20024 	lw	s2,36(sp)
  40074c:	8fb10020 	lw	s1,32(sp)
  400750:	8fb0001c 	lw	s0,28(sp)
  400754:	03e00008 	jr	ra
  400758:	27bd0030 	addiu	sp,sp,48

0040075c <frame_dummy>:
  40075c:	3c1c004a 	lui	gp,0x4a
  400760:	27bdffe0 	addiu	sp,sp,-32
  400764:	279ca2b0 	addiu	gp,gp,-23888
  400768:	afbf001c 	sw	ra,28(sp)
  40076c:	8f82802c 	lw	v0,-32724(gp)
  400770:	10400008 	beqz	v0,400794 <frame_dummy+0x38>
  400774:	afbc0010 	sw	gp,16(sp)
  400778:	3c050049 	lui	a1,0x49
  40077c:	8f99802c 	lw	t9,-32724(gp)
  400780:	3c040048 	lui	a0,0x48
  400784:	24a52798 	addiu	a1,a1,10136
  400788:	0320f809 	jalr	t9
  40078c:	2484b1e0 	addiu	a0,a0,-20000
  400790:	8fbc0010 	lw	gp,16(sp)
  400794:	8fbf001c 	lw	ra,28(sp)
  400798:	0810018e 	j	400638 <register_tm_clones>
  40079c:	27bd0020 	addiu	sp,sp,32

004007a0 <main>:
  4007a0:	27bdff98 	addiu	sp,sp,-104
  4007a4:	afbf0064 	sw	ra,100(sp)
  4007a8:	afbe0060 	sw	s8,96(sp)
  4007ac:	03a0f025 	move	s8,sp
  4007b0:	3c1c004a 	lui	gp,0x4a
  4007b4:	279ca2b0 	addiu	gp,gp,-23888
  4007b8:	afbc0010 	sw	gp,16(sp)
  4007bc:	afc40068 	sw	a0,104(s8)
  4007c0:	afc5006c 	sw	a1,108(s8)
  4007c4:	3c020046 	lui	v0,0x46
  4007c8:	244453c0 	addiu	a0,v0,21440
  4007cc:	8f828060 	lw	v0,-32672(gp)
  4007d0:	0040c825 	move	t9,v0
  4007d4:	041121de 	bal	408f50 <_IO_puts>
  4007d8:	00000000 	nop
  4007dc:	8fdc0010 	lw	gp,16(s8)
  4007e0:	3c020046 	lui	v0,0x46
  4007e4:	244453dc 	addiu	a0,v0,21468
  4007e8:	8f828060 	lw	v0,-32672(gp)
  4007ec:	0040c825 	move	t9,v0
  4007f0:	041121d7 	bal	408f50 <_IO_puts>
  4007f4:	00000000 	nop
  4007f8:	8fdc0010 	lw	gp,16(s8)
  4007fc:	8f828064 	lw	v0,-32668(gp)
  400800:	8c420000 	lw	v0,0(v0)
  400804:	00402025 	move	a0,v0
  400808:	8f828068 	lw	v0,-32664(gp)
  40080c:	0040c825 	move	t9,v0
  400810:	0411203f 	bal	408910 <_IO_fflush>
  400814:	00000000 	nop
  400818:	8fdc0010 	lw	gp,16(s8)
  40081c:	27c20018 	addiu	v0,s8,24
  400820:	00402025 	move	a0,v0
  400824:	8f82806c 	lw	v0,-32660(gp)
  400828:	0040c825 	move	t9,v0
  40082c:	0411212c 	bal	408ce0 <_IO_gets>
  400830:	00000000 	nop
  400834:	8fdc0010 	lw	gp,16(s8)
  400838:	00001025 	move	v0,zero
  40083c:	03c0e825 	move	sp,s8
  400840:	8fbf0064 	lw	ra,100(sp)
  400844:	8fbe0060 	lw	s8,96(sp)
  400848:	27bd0068 	addiu	sp,sp,104
  40084c:	03e00008 	jr	ra
  400850:	00000000 	nop
	...

00400860 <__libc_start_main>:
  400860:	3c1c004a 	lui	gp,0x4a
  400864:	27bdff60 	addiu	sp,sp,-160
  400868:	279ca2b0 	addiu	gp,gp,-23888
  40086c:	afb00098 	sw	s0,152(sp)
  400870:	00e08025 	move	s0,a3
  400874:	afbf009c 	sw	ra,156(sp)
  400878:	afbc0010 	sw	gp,16(sp)
  40087c:	afa400a0 	sw	a0,160(sp)
  400880:	afa500a4 	sw	a1,164(sp)
  400884:	8f82832c 	lw	v0,-31956(gp)
  400888:	10400080 	beqz	v0,400a8c <__libc_start_main+0x22c>
  40088c:	afa600a8 	sw	a2,168(sp)
  400890:	8c420000 	lw	v0,0(v0)
  400894:	2c420001 	sltiu	v0,v0,1
  400898:	8fa300a4 	lw	v1,164(sp)
  40089c:	24640001 	addiu	a0,v1,1
  4008a0:	8fa300a8 	lw	v1,168(sp)
  4008a4:	00042080 	sll	a0,a0,0x2
  4008a8:	00642021 	addu	a0,v1,a0
  4008ac:	3c030049 	lui	v1,0x49
  4008b0:	ac621d00 	sw	v0,7424(v1)
  4008b4:	8f828070 	lw	v0,-32656(gp)
  4008b8:	8fa300b8 	lw	v1,184(sp)
  4008bc:	ac430000 	sw	v1,0(v0)
  4008c0:	8f828040 	lw	v0,-32704(gp)
  4008c4:	ac440000 	sw	a0,0(v0)
  4008c8:	8c820000 	lw	v0,0(a0)
  4008cc:	1440fffe 	bnez	v0,4008c8 <__libc_start_main+0x68>
  4008d0:	24840004 	addiu	a0,a0,4
  4008d4:	3c190042 	lui	t9,0x42
  4008d8:	2739fcb0 	addiu	t9,t9,-848
  4008dc:	04117cf4 	bal	41fcb0 <_dl_aux_init>
  4008e0:	00000000 	nop
  4008e4:	8fbc0010 	lw	gp,16(sp)
  4008e8:	8f828074 	lw	v0,-32652(gp)
  4008ec:	8c430000 	lw	v1,0(v0)
  4008f0:	10600068 	beqz	v1,400a94 <__libc_start_main+0x234>
  4008f4:	8f838030 	lw	v1,-32720(gp)
  4008f8:	8f998078 	lw	t9,-32648(gp)
  4008fc:	0320f809 	jalr	t9
  400900:	00000000 	nop
  400904:	8fbc0010 	lw	gp,16(sp)
  400908:	8f828040 	lw	v0,-32704(gp)
  40090c:	8f99807c 	lw	t9,-32644(gp)
  400910:	04117b69 	bal	41f6b8 <__tunables_init>
  400914:	8c440000 	lw	a0,0(v0)
  400918:	8fbc0010 	lw	gp,16(sp)
  40091c:	8f998080 	lw	t9,-32640(gp)
  400920:	041100fb 	bal	400d10 <__libc_setup_tls>
  400924:	00000000 	nop
  400928:	3c020049 	lui	v0,0x49
  40092c:	8fbc0010 	lw	gp,16(sp)
  400930:	8c430e00 	lw	v1,3584(v0)
  400934:	3c020049 	lui	v0,0x49
  400938:	8c441d00 	lw	a0,7424(v0)
  40093c:	88620000 	lwl	v0,0(v1)
  400940:	98620003 	lwr	v0,3(v1)
  400944:	3c030049 	lui	v1,0x49
  400948:	7c42b800 	ext	v0,v0,0x0,0x18
  40094c:	10800066 	beqz	a0,400ae8 <__libc_start_main+0x288>
  400950:	ac620958 	sw	v0,2392(v1)
  400954:	8f82835c 	lw	v0,-31908(gp)
  400958:	10400004 	beqz	v0,40096c <__libc_start_main+0x10c>
  40095c:	8f99835c 	lw	t9,-31908(gp)
  400960:	0320f809 	jalr	t9
  400964:	00000000 	nop
  400968:	8fbc0010 	lw	gp,16(sp)
  40096c:	3c020049 	lui	v0,0x49
  400970:	8c430e00 	lw	v1,3584(v0)
  400974:	88620004 	lwl	v0,4(v1)
  400978:	98620007 	lwr	v0,7(v1)
  40097c:	3c030049 	lui	v1,0x49
  400980:	afa20018 	sw	v0,24(sp)
  400984:	ac620954 	sw	v0,2388(v1)
  400988:	8fa200b4 	lw	v0,180(sp)
  40098c:	10400007 	beqz	v0,4009ac <__libc_start_main+0x14c>
  400990:	3c190040 	lui	t9,0x40
  400994:	8fa400b4 	lw	a0,180(sp)
  400998:	00003025 	move	a2,zero
  40099c:	273977a8 	addiu	t9,t9,30632
  4009a0:	04111b81 	bal	4077a8 <__cxa_atexit>
  4009a4:	00002825 	move	a1,zero
  4009a8:	8fbc0010 	lw	gp,16(sp)
  4009ac:	8f828040 	lw	v0,-32704(gp)
  4009b0:	8f998084 	lw	t9,-32636(gp)
  4009b4:	8fa500a8 	lw	a1,168(sp)
  4009b8:	8fa400a4 	lw	a0,164(sp)
  4009bc:	0320f809 	jalr	t9
  4009c0:	8c460000 	lw	a2,0(v0)
  4009c4:	8fa200b0 	lw	v0,176(sp)
  4009c8:	10400008 	beqz	v0,4009ec <__libc_start_main+0x18c>
  4009cc:	8fbc0010 	lw	gp,16(sp)
  4009d0:	3c190040 	lui	t9,0x40
  4009d4:	8fa400b0 	lw	a0,176(sp)
  4009d8:	00003025 	move	a2,zero
  4009dc:	273977a8 	addiu	t9,t9,30632
  4009e0:	04111b71 	bal	4077a8 <__cxa_atexit>
  4009e4:	00002825 	move	a1,zero
  4009e8:	8fbc0010 	lw	gp,16(sp)
  4009ec:	8f828088 	lw	v0,-32632(gp)
  4009f0:	8c420000 	lw	v0,0(v0)
  4009f4:	14400065 	bnez	v0,400b8c <__libc_start_main+0x32c>
  4009f8:	3c190040 	lui	t9,0x40
  4009fc:	12000006 	beqz	s0,400a18 <__libc_start_main+0x1b8>
  400a00:	8f828040 	lw	v0,-32704(gp)
  400a04:	0200c825 	move	t9,s0
  400a08:	8fa500a8 	lw	a1,168(sp)
  400a0c:	8fa400a4 	lw	a0,164(sp)
  400a10:	0320f809 	jalr	t9
  400a14:	8c460000 	lw	a2,0(v0)
  400a18:	3c190042 	lui	t9,0x42
  400a1c:	00002825 	move	a1,zero
  400a20:	2739f488 	addiu	t9,t9,-2936
  400a24:	04117a98 	bal	41f488 <_dl_debug_initialize>
  400a28:	00002025 	move	a0,zero
  400a2c:	3c190040 	lui	t9,0x40
  400a30:	27396780 	addiu	t9,t9,26496
  400a34:	04111752 	bal	406780 <_setjmp>
  400a38:	27a40018 	addiu	a0,sp,24
  400a3c:	14400040 	bnez	v0,400b40 <__libc_start_main+0x2e0>
  400a40:	8fbc0010 	lw	gp,16(sp)
  400a44:	7c03e83b 	rdhwr	v1,$29
  400a48:	8f868040 	lw	a2,-32704(gp)
  400a4c:	00601025 	move	v0,v1
  400a50:	8c678bf0 	lw	a3,-29712(v1)
  400a54:	8c638bec 	lw	v1,-29716(v1)
  400a58:	8fa500a8 	lw	a1,168(sp)
  400a5c:	8cc60000 	lw	a2,0(a2)
  400a60:	8fa400a4 	lw	a0,164(sp)
  400a64:	8fb900a0 	lw	t9,160(sp)
  400a68:	afa3008c 	sw	v1,140(sp)
  400a6c:	27a30018 	addiu	v1,sp,24
  400a70:	afa70088 	sw	a3,136(sp)
  400a74:	0320f809 	jalr	t9
  400a78:	ac438bf0 	sw	v1,-29712(v0)
  400a7c:	3c190040 	lui	t9,0x40
  400a80:	273974e4 	addiu	t9,t9,29924
  400a84:	04111a97 	bal	4074e4 <exit>
  400a88:	00402025 	move	a0,v0
  400a8c:	1000ff82 	b	400898 <__libc_start_main+0x38>
  400a90:	00001025 	move	v0,zero
  400a94:	1060ff98 	beqz	v1,4008f8 <__libc_start_main+0x98>
  400a98:	24050020 	li	a1,32
  400a9c:	9464002a 	lhu	a0,42(v1)
  400aa0:	1085000a 	beq	a0,a1,400acc <__libc_start_main+0x26c>
  400aa4:	3c070046 	lui	a3,0x46
  400aa8:	3c050046 	lui	a1,0x46
  400aac:	3c040046 	lui	a0,0x46
  400ab0:	3c190040 	lui	t9,0x40
  400ab4:	24e75470 	addiu	a3,a3,21616
  400ab8:	240600b4 	li	a2,180
  400abc:	24a553f0 	addiu	a1,a1,21488
  400ac0:	27391364 	addiu	t9,t9,4964
  400ac4:	04110227 	bal	401364 <__assert_fail>
  400ac8:	24845400 	addiu	a0,a0,21504
  400acc:	8c64001c 	lw	a0,28(v1)
  400ad0:	9465002c 	lhu	a1,44(v1)
  400ad4:	00641821 	addu	v1,v1,a0
  400ad8:	8f84808c 	lw	a0,-32628(gp)
  400adc:	ac430000 	sw	v1,0(v0)
  400ae0:	1000ff85 	b	4008f8 <__libc_start_main+0x98>
  400ae4:	ac850000 	sw	a1,0(a0)
  400ae8:	3c190042 	lui	t9,0x42
  400aec:	27390aa0 	addiu	t9,t9,2720
  400af0:	04117feb 	bal	420aa0 <_dl_discover_osversion>
  400af4:	00000000 	nop
  400af8:	0440002d 	bltz	v0,400bb0 <__libc_start_main+0x350>
  400afc:	8fbc0010 	lw	gp,16(sp)
  400b00:	8f838090 	lw	v1,-32624(gp)
  400b04:	8c630000 	lw	v1,0(v1)
  400b08:	14600025 	bnez	v1,400ba0 <__libc_start_main+0x340>
  400b0c:	0043182b 	sltu	v1,v0,v1
  400b10:	8f838090 	lw	v1,-32624(gp)
  400b14:	ac620000 	sw	v0,0(v1)
  400b18:	3c030003 	lui	v1,0x3
  400b1c:	24630200 	addiu	v1,v1,512
  400b20:	0043102a 	slt	v0,v0,v1
  400b24:	1040ff8c 	beqz	v0,400958 <__libc_start_main+0xf8>
  400b28:	8f82835c 	lw	v0,-31908(gp)
  400b2c:	3c040046 	lui	a0,0x46
  400b30:	3c190041 	lui	t9,0x41
  400b34:	2739bcf0 	addiu	t9,t9,-17168
  400b38:	04112c6d 	bal	40bcf0 <__libc_fatal>
  400b3c:	24845430 	addiu	a0,a0,21552
  400b40:	8f998380 	lw	t9,-31872(gp)
  400b44:	0320f809 	jalr	t9
  400b48:	00000000 	nop
  400b4c:	8fbc0010 	lw	gp,16(sp)
  400b50:	8f828334 	lw	v0,-31948(gp)
  400b54:	c0430000 	ll	v1,0(v0)
  400b58:	2461ffff 	addiu	at,v1,-1
  400b5c:	e0410000 	sc	at,0(v0)
  400b60:	1020fffc 	beqz	at,400b54 <__libc_start_main+0x2f4>
  400b64:	00000000 	nop
  400b68:	0000000f 	sync
  400b6c:	24020001 	li	v0,1
  400b70:	1062ffc2 	beq	v1,v0,400a7c <__libc_start_main+0x21c>
  400b74:	00001025 	move	v0,zero
  400b78:	00002025 	move	a0,zero
  400b7c:	24020fa1 	li	v0,4001
  400b80:	0000000c 	syscall
  400b84:	1000fffd 	b	400b7c <__libc_start_main+0x31c>
  400b88:	00002025 	move	a0,zero
  400b8c:	27390cd0 	addiu	t9,t9,3280
  400b90:	0411004f 	bal	400cd0 <__libc_check_standard_fds>
  400b94:	00000000 	nop
  400b98:	1000ff98 	b	4009fc <__libc_start_main+0x19c>
  400b9c:	8fbc0010 	lw	gp,16(sp)
  400ba0:	1060ffdd 	beqz	v1,400b18 <__libc_start_main+0x2b8>
  400ba4:	8f838090 	lw	v1,-32624(gp)
  400ba8:	1000ffdb 	b	400b18 <__libc_start_main+0x2b8>
  400bac:	ac620000 	sw	v0,0(v1)
  400bb0:	3c040046 	lui	a0,0x46
  400bb4:	3c190041 	lui	t9,0x41
  400bb8:	2739bcf0 	addiu	t9,t9,-17168
  400bbc:	04112c4c 	bal	40bcf0 <__libc_fatal>
  400bc0:	24845448 	addiu	a0,a0,21576
	...

00400bd0 <check_one_fd>:
  400bd0:	27bdff38 	addiu	sp,sp,-200
  400bd4:	3c1c004a 	lui	gp,0x4a
  400bd8:	3c190042 	lui	t9,0x42
  400bdc:	279ca2b0 	addiu	gp,gp,-23888
  400be0:	afb100bc 	sw	s1,188(sp)
  400be4:	2739d61c 	addiu	t9,t9,-10724
  400be8:	afb000b8 	sw	s0,184(sp)
  400bec:	00a08825 	move	s1,a1
  400bf0:	afbc0010 	sw	gp,16(sp)
  400bf4:	24050001 	li	a1,1
  400bf8:	afbf00c4 	sw	ra,196(sp)
  400bfc:	afb200c0 	sw	s2,192(sp)
  400c00:	04117286 	bal	41d61c <__fcntl64_nocancel>
  400c04:	00808025 	move	s0,a0
  400c08:	2403ffff 	li	v1,-1
  400c0c:	10430007 	beq	v0,v1,400c2c <check_one_fd+0x5c>
  400c10:	8fbc0010 	lw	gp,16(sp)
  400c14:	8fbf00c4 	lw	ra,196(sp)
  400c18:	8fb200c0 	lw	s2,192(sp)
  400c1c:	8fb100bc 	lw	s1,188(sp)
  400c20:	8fb000b8 	lw	s0,184(sp)
  400c24:	03e00008 	jr	ra
  400c28:	27bd00c8 	addiu	sp,sp,200
  400c2c:	8f8283e4 	lw	v0,-31772(gp)
  400c30:	7c03e83b 	rdhwr	v1,$29
  400c34:	00602025 	move	a0,v1
  400c38:	24030009 	li	v1,9
  400c3c:	00441021 	addu	v0,v0,a0
  400c40:	8c420000 	lw	v0,0(v0)
  400c44:	1443fff4 	bne	v0,v1,400c18 <check_one_fd+0x48>
  400c48:	8fbf00c4 	lw	ra,196(sp)
  400c4c:	3c020002 	lui	v0,0x2
  400c50:	1622001c 	bne	s1,v0,400cc4 <check_one_fd+0xf4>
  400c54:	3c040046 	lui	a0,0x46
  400c58:	3c040046 	lui	a0,0x46
  400c5c:	24120103 	li	s2,259
  400c60:	24845490 	addiu	a0,a0,21648
  400c64:	3c190042 	lui	t9,0x42
  400c68:	00003025 	move	a2,zero
  400c6c:	2739d690 	addiu	t9,t9,-10608
  400c70:	04117287 	bal	41d690 <__open_nocancel>
  400c74:	02202825 	move	a1,s1
  400c78:	1602000e 	bne	s0,v0,400cb4 <check_one_fd+0xe4>
  400c7c:	3c190042 	lui	t9,0x42
  400c80:	27a60018 	addiu	a2,sp,24
  400c84:	24040003 	li	a0,3
  400c88:	2739c8d0 	addiu	t9,t9,-14128
  400c8c:	04116f10 	bal	41c8d0 <___fxstat64>
  400c90:	02002825 	move	a1,s0
  400c94:	14400007 	bnez	v0,400cb4 <check_one_fd+0xe4>
  400c98:	8fa20030 	lw	v0,48(sp)
  400c9c:	24032000 	li	v1,8192
  400ca0:	3042f000 	andi	v0,v0,0xf000
  400ca4:	14430003 	bne	v0,v1,400cb4 <check_one_fd+0xe4>
  400ca8:	8fa20040 	lw	v0,64(sp)
  400cac:	1052ffda 	beq	v0,s2,400c18 <check_one_fd+0x48>
  400cb0:	8fbf00c4 	lw	ra,196(sp)
  400cb4:	00ff000d 	break	0xff
  400cb8:	00ff000d 	break	0xff
  400cbc:	1000fffd 	b	400cb4 <check_one_fd+0xe4>
  400cc0:	00000000 	nop
  400cc4:	24120107 	li	s2,263
  400cc8:	1000ffe6 	b	400c64 <check_one_fd+0x94>
  400ccc:	24845484 	addiu	a0,a0,21636

00400cd0 <__libc_check_standard_fds>:
  400cd0:	3c050002 	lui	a1,0x2
  400cd4:	27bdffe0 	addiu	sp,sp,-32
  400cd8:	00002025 	move	a0,zero
  400cdc:	afbf001c 	sw	ra,28(sp)
  400ce0:	0c1002f4 	jal	400bd0 <check_one_fd>
  400ce4:	24a50001 	addiu	a1,a1,1
  400ce8:	3c050002 	lui	a1,0x2
  400cec:	0c1002f4 	jal	400bd0 <check_one_fd>
  400cf0:	24040001 	li	a0,1
  400cf4:	3c050002 	lui	a1,0x2
  400cf8:	8fbf001c 	lw	ra,28(sp)
  400cfc:	24040002 	li	a0,2
  400d00:	081002f4 	j	400bd0 <check_one_fd>
  400d04:	27bd0020 	addiu	sp,sp,32
	...

00400d10 <__libc_setup_tls>:
  400d10:	3c1c004a 	lui	gp,0x4a
  400d14:	27bdffa8 	addiu	sp,sp,-88
  400d18:	279ca2b0 	addiu	gp,gp,-23888
  400d1c:	afb00030 	sw	s0,48(sp)
  400d20:	8f828074 	lw	v0,-32652(gp)
  400d24:	afb20038 	sw	s2,56(sp)
  400d28:	afbf0054 	sw	ra,84(sp)
  400d2c:	afbe0050 	sw	s8,80(sp)
  400d30:	afb7004c 	sw	s7,76(sp)
  400d34:	afb60048 	sw	s6,72(sp)
  400d38:	afb50044 	sw	s5,68(sp)
  400d3c:	afb40040 	sw	s4,64(sp)
  400d40:	afb3003c 	sw	s3,60(sp)
  400d44:	afb10034 	sw	s1,52(sp)
  400d48:	afbc0010 	sw	gp,16(sp)
  400d4c:	8c500000 	lw	s0,0(v0)
  400d50:	8f828094 	lw	v0,-32620(gp)
  400d54:	12000090 	beqz	s0,400f98 <__libc_setup_tls+0x288>
  400d58:	8c520000 	lw	s2,0(v0)
  400d5c:	8f82808c 	lw	v0,-32628(gp)
  400d60:	8c430000 	lw	v1,0(v0)
  400d64:	00031940 	sll	v1,v1,0x5
  400d68:	02031821 	addu	v1,s0,v1
  400d6c:	0203102b 	sltu	v0,s0,v1
  400d70:	1040007e 	beqz	v0,400f6c <__libc_setup_tls+0x25c>
  400d74:	24110001 	li	s1,1
  400d78:	10000004 	b	400d8c <__libc_setup_tls+0x7c>
  400d7c:	24040007 	li	a0,7
  400d80:	0203102b 	sltu	v0,s0,v1
  400d84:	10400079 	beqz	v0,400f6c <__libc_setup_tls+0x25c>
  400d88:	24110001 	li	s1,1
  400d8c:	8e020000 	lw	v0,0(s0)
  400d90:	1444fffb 	bne	v0,a0,400d80 <__libc_setup_tls+0x70>
  400d94:	26100020 	addiu	s0,s0,32
  400d98:	2610ffe0 	addiu	s0,s0,-32
  400d9c:	8e14001c 	lw	s4,28(s0)
  400da0:	24040010 	li	a0,16
  400da4:	8e420000 	lw	v0,0(s2)
  400da8:	24110001 	li	s1,1
  400dac:	8e030008 	lw	v1,8(s0)
  400db0:	2e950010 	sltiu	s5,s4,16
  400db4:	0294880b 	movn	s1,s4,s4
  400db8:	0295200a 	movz	a0,s4,s5
  400dbc:	00431021 	addu	v0,v0,v1
  400dc0:	8e170014 	lw	s7,20(s0)
  400dc4:	8e060010 	lw	a2,16(s0)
  400dc8:	2485ffff 	addiu	a1,a0,-1
  400dcc:	00044023 	negu	t0,a0
  400dd0:	1280007c 	beqz	s4,400fc4 <__libc_setup_tls+0x2b4>
  400dd4:	0080a825 	move	s5,a0
  400dd8:	2683ffff 	addiu	v1,s4,-1
  400ddc:	00408025 	move	s0,v0
  400de0:	022001f4 	teq	s1,zero,0x7
  400de4:	0071001b 	divu	zero,v1,s1
  400de8:	afa30018 	sw	v1,24(sp)
  400dec:	0000b012 	mflo	s6
  400df0:	72d1b002 	mul	s6,s6,s1
  400df4:	02c04825 	move	t1,s6
  400df8:	3c1e0049 	lui	s8,0x49
  400dfc:	8f938098 	lw	s3,-32616(gp)
  400e00:	3c190042 	lui	t9,0x42
  400e04:	afa50028 	sw	a1,40(sp)
  400e08:	afa90020 	sw	t1,32(sp)
  400e0c:	8fc41010 	lw	a0,4112(s8)
  400e10:	2739d8c0 	addiu	t9,t9,-10048
  400e14:	afa80024 	sw	t0,36(sp)
  400e18:	afa6001c 	sw	a2,28(sp)
  400e1c:	24840490 	addiu	a0,a0,1168
  400e20:	00962021 	addu	a0,a0,s6
  400e24:	00972021 	addu	a0,a0,s7
  400e28:	041172a5 	bal	41d8c0 <__sbrk>
  400e2c:	00952021 	addu	a0,a0,s5
  400e30:	8fa50028 	lw	a1,40(sp)
  400e34:	24430490 	addiu	v1,v0,1168
  400e38:	8fbc0010 	lw	gp,16(sp)
  400e3c:	2402003e 	li	v0,62
  400e40:	8fa80024 	lw	t0,36(sp)
  400e44:	00651821 	addu	v1,v1,a1
  400e48:	8fa90020 	lw	t1,32(sp)
  400e4c:	8fa6001c 	lw	a2,28(sp)
  400e50:	02002825 	move	a1,s0
  400e54:	00681824 	and	v1,v1,t0
  400e58:	8f99809c 	lw	t9,-32612(gp)
  400e5c:	00762021 	addu	a0,v1,s6
  400e60:	afa3001c 	sw	v1,28(sp)
  400e64:	ae620000 	sw	v0,0(s3)
  400e68:	ae640010 	sw	a0,16(s3)
  400e6c:	ae490320 	sw	t1,800(s2)
  400e70:	afa60020 	sw	a2,32(sp)
  400e74:	04116812 	bal	41aec0 <memcpy>
  400e78:	ae600014 	sw	zero,20(s3)
  400e7c:	26670008 	addiu	a3,s3,8
  400e80:	8fa3001c 	lw	v1,28(sp)
  400e84:	8fbc0010 	lw	gp,16(sp)
  400e88:	24647000 	addiu	a0,v1,28672
  400e8c:	ac67fff8 	sw	a3,-8(v1)
  400e90:	240210bb 	li	v0,4283
  400e94:	0000000c 	syscall
  400e98:	10e00006 	beqz	a3,400eb4 <__libc_setup_tls+0x1a4>
  400e9c:	8fa60020 	lw	a2,32(sp)
  400ea0:	3c040046 	lui	a0,0x46
  400ea4:	3c190041 	lui	t9,0x41
  400ea8:	2739bcf0 	addiu	t9,t9,-17168
  400eac:	04112b90 	bal	40bcf0 <__libc_fatal>
  400eb0:	2484549c 	addiu	a0,a0,21660
  400eb4:	8fa20018 	lw	v0,24(sp)
  400eb8:	3c050049 	lui	a1,0x49
  400ebc:	ae460310 	sw	a2,784(s2)
  400ec0:	24060040 	li	a2,64
  400ec4:	24a427b0 	addiu	a0,a1,10160
  400ec8:	ae540318 	sw	s4,792(s2)
  400ecc:	00579821 	addu	s3,v0,s7
  400ed0:	aca627b0 	sw	a2,10160(a1)
  400ed4:	8f8580a0 	lw	a1,-32608(gp)
  400ed8:	24030001 	li	v1,1
  400edc:	022001f4 	teq	s1,zero,0x7
  400ee0:	0271001b 	divu	zero,s3,s1
  400ee4:	ac920014 	sw	s2,20(a0)
  400ee8:	ae430324 	sw	v1,804(s2)
  400eec:	8fc21010 	lw	v0,4112(s8)
  400ef0:	aca30000 	sw	v1,0(a1)
  400ef4:	8f8580a4 	lw	a1,-32604(gp)
  400ef8:	2442000f 	addiu	v0,v0,15
  400efc:	8fbf0054 	lw	ra,84(sp)
  400f00:	8fb40040 	lw	s4,64(sp)
  400f04:	ae570314 	sw	s7,788(s2)
  400f08:	aca40000 	sw	a0,0(a1)
  400f0c:	8f8480a8 	lw	a0,-32600(gp)
  400f10:	8fb7004c 	lw	s7,76(sp)
  400f14:	ae50030c 	sw	s0,780(s2)
  400f18:	8fb20038 	lw	s2,56(sp)
  400f1c:	ac950000 	sw	s5,0(a0)
  400f20:	8f8480ac 	lw	a0,-32596(gp)
  400f24:	8fb50044 	lw	s5,68(sp)
  400f28:	8fb00030 	lw	s0,48(sp)
  400f2c:	ac830000 	sw	v1,0(a0)
  400f30:	00009812 	mflo	s3
  400f34:	72331802 	mul	v1,s1,s3
  400f38:	8fb3003c 	lw	s3,60(sp)
  400f3c:	00768821 	addu	s1,v1,s6
  400f40:	8f8380b0 	lw	v1,-32592(gp)
  400f44:	8fb60048 	lw	s6,72(sp)
  400f48:	00511021 	addu	v0,v0,s1
  400f4c:	ac710000 	sw	s1,0(v1)
  400f50:	2403fff0 	li	v1,-16
  400f54:	8fb10034 	lw	s1,52(sp)
  400f58:	00431024 	and	v0,v0,v1
  400f5c:	afc21010 	sw	v0,4112(s8)
  400f60:	8fbe0050 	lw	s8,80(sp)
  400f64:	03e00008 	jr	ra
  400f68:	27bd0058 	addiu	sp,sp,88
  400f6c:	afa00018 	sw	zero,24(sp)
  400f70:	0000b025 	move	s6,zero
  400f74:	00004825 	move	t1,zero
  400f78:	2408fff0 	li	t0,-16
  400f7c:	2405000f 	li	a1,15
  400f80:	24150010 	li	s5,16
  400f84:	0000a025 	move	s4,zero
  400f88:	00008025 	move	s0,zero
  400f8c:	00003025 	move	a2,zero
  400f90:	1000ff99 	b	400df8 <__libc_setup_tls+0xe8>
  400f94:	0000b825 	move	s7,zero
  400f98:	24110001 	li	s1,1
  400f9c:	afa00018 	sw	zero,24(sp)
  400fa0:	0000b025 	move	s6,zero
  400fa4:	00004825 	move	t1,zero
  400fa8:	2408fff0 	li	t0,-16
  400fac:	2405000f 	li	a1,15
  400fb0:	24150010 	li	s5,16
  400fb4:	0000a025 	move	s4,zero
  400fb8:	00003025 	move	a2,zero
  400fbc:	1000ff8e 	b	400df8 <__libc_setup_tls+0xe8>
  400fc0:	0000b825 	move	s7,zero
  400fc4:	0000b025 	move	s6,zero
  400fc8:	afa00018 	sw	zero,24(sp)
  400fcc:	00004825 	move	t1,zero
  400fd0:	1000ff89 	b	400df8 <__libc_setup_tls+0xe8>
  400fd4:	00408025 	move	s0,v0

00400fd8 <__tls_get_addr>:
  400fd8:	7c03e83b 	rdhwr	v1,$29
  400fdc:	8c628ff8 	lw	v0,-28680(v1)
  400fe0:	8c830004 	lw	v1,4(a0)
  400fe4:	8c440008 	lw	a0,8(v0)
  400fe8:	34028000 	li	v0,0x8000
  400fec:	00621021 	addu	v0,v1,v0
  400ff0:	03e00008 	jr	ra
  400ff4:	00821021 	addu	v0,a0,v0
	...

00401000 <__libc_csu_init>:
  401000:	27bdffc8 	addiu	sp,sp,-56
  401004:	3c1c004a 	lui	gp,0x4a
  401008:	afb50030 	sw	s5,48(sp)
  40100c:	3c150049 	lui	s5,0x49
  401010:	afb0001c 	sw	s0,28(sp)
  401014:	3c100049 	lui	s0,0x49
  401018:	26b5e934 	addiu	s5,s5,-5836
  40101c:	afb4002c 	sw	s4,44(sp)
  401020:	2610e934 	addiu	s0,s0,-5836
  401024:	afb30028 	sw	s3,40(sp)
  401028:	279ca2b0 	addiu	gp,gp,-23888
  40102c:	afb20024 	sw	s2,36(sp)
  401030:	02b0a823 	subu	s5,s5,s0
  401034:	afbf0034 	sw	ra,52(sp)
  401038:	afb10020 	sw	s1,32(sp)
  40103c:	00809025 	move	s2,a0
  401040:	0015a883 	sra	s5,s5,0x2
  401044:	afbc0010 	sw	gp,16(sp)
  401048:	00a09825 	move	s3,a1
  40104c:	12a0000b 	beqz	s5,40107c <__libc_csu_init+0x7c>
  401050:	00c0a025 	move	s4,a2
  401054:	00008825 	move	s1,zero
  401058:	8e190000 	lw	t9,0(s0)
  40105c:	26310001 	addiu	s1,s1,1
  401060:	02803025 	move	a2,s4
  401064:	02602825 	move	a1,s3
  401068:	0320f809 	jalr	t9
  40106c:	02402025 	move	a0,s2
  401070:	26100004 	addiu	s0,s0,4
  401074:	16b1fff8 	bne	s5,s1,401058 <__libc_csu_init+0x58>
  401078:	8fbc0010 	lw	gp,16(sp)
  40107c:	3c100049 	lui	s0,0x49
  401080:	8f9980b4 	lw	t9,-32588(gp)
  401084:	3c150049 	lui	s5,0x49
  401088:	2610e934 	addiu	s0,s0,-5836
  40108c:	0411fc75 	bal	400264 <_init>
  401090:	26b5e934 	addiu	s5,s5,-5836
  401094:	02b0a823 	subu	s5,s5,s0
  401098:	0015a883 	sra	s5,s5,0x2
  40109c:	12a00009 	beqz	s5,4010c4 <__libc_csu_init+0xc4>
  4010a0:	00008825 	move	s1,zero
  4010a4:	8e190000 	lw	t9,0(s0)
  4010a8:	26310001 	addiu	s1,s1,1
  4010ac:	02803025 	move	a2,s4
  4010b0:	02602825 	move	a1,s3
  4010b4:	0320f809 	jalr	t9
  4010b8:	02402025 	move	a0,s2
  4010bc:	16b1fff9 	bne	s5,s1,4010a4 <__libc_csu_init+0xa4>
  4010c0:	26100004 	addiu	s0,s0,4
  4010c4:	8fbf0034 	lw	ra,52(sp)
  4010c8:	8fb50030 	lw	s5,48(sp)
  4010cc:	8fb4002c 	lw	s4,44(sp)
  4010d0:	8fb30028 	lw	s3,40(sp)
  4010d4:	8fb20024 	lw	s2,36(sp)
  4010d8:	8fb10020 	lw	s1,32(sp)
  4010dc:	8fb0001c 	lw	s0,28(sp)
  4010e0:	03e00008 	jr	ra
  4010e4:	27bd0038 	addiu	sp,sp,56

004010e8 <__libc_csu_fini>:
  4010e8:	27bdffd8 	addiu	sp,sp,-40
  4010ec:	3c020049 	lui	v0,0x49
  4010f0:	3c1c004a 	lui	gp,0x4a
  4010f4:	afb00018 	sw	s0,24(sp)
  4010f8:	3c100049 	lui	s0,0x49
  4010fc:	2442e938 	addiu	v0,v0,-5832
  401100:	afbf0024 	sw	ra,36(sp)
  401104:	2610e934 	addiu	s0,s0,-5836
  401108:	afb20020 	sw	s2,32(sp)
  40110c:	279ca2b0 	addiu	gp,gp,-23888
  401110:	afb1001c 	sw	s1,28(sp)
  401114:	00501023 	subu	v0,v0,s0
  401118:	00021883 	sra	v1,v0,0x2
  40111c:	1060000b 	beqz	v1,40114c <__libc_csu_fini+0x64>
  401120:	afbc0010 	sw	gp,16(sp)
  401124:	2442fffc 	addiu	v0,v0,-4
  401128:	2471ffff 	addiu	s1,v1,-1
  40112c:	2412ffff 	li	s2,-1
  401130:	02028021 	addu	s0,s0,v0
  401134:	8e190000 	lw	t9,0(s0)
  401138:	2631ffff 	addiu	s1,s1,-1
  40113c:	0320f809 	jalr	t9
  401140:	2610fffc 	addiu	s0,s0,-4
  401144:	1632fffb 	bne	s1,s2,401134 <__libc_csu_fini+0x4c>
  401148:	8fbc0010 	lw	gp,16(sp)
  40114c:	8fbf0024 	lw	ra,36(sp)
  401150:	8fb20020 	lw	s2,32(sp)
  401154:	8fb1001c 	lw	s1,28(sp)
  401158:	8fb00018 	lw	s0,24(sp)
  40115c:	8f9980b8 	lw	t9,-32584(gp)
  401160:	03200008 	jr	t9
  401164:	27bd0028 	addiu	sp,sp,40
	...

00401170 <__assert_fail_base>:
  401170:	3c1c004a 	lui	gp,0x4a
  401174:	27bdffa8 	addiu	sp,sp,-88
  401178:	279ca2b0 	addiu	gp,gp,-23888
  40117c:	afb40050 	sw	s4,80(sp)
  401180:	00a0a025 	move	s4,a1
  401184:	8f838038 	lw	v1,-32712(gp)
  401188:	8f828370 	lw	v0,-31888(gp)
  40118c:	afb3004c 	sw	s3,76(sp)
  401190:	00e09825 	move	s3,a3
  401194:	afb20048 	sw	s2,72(sp)
  401198:	00c09025 	move	s2,a2
  40119c:	afb10044 	sw	s1,68(sp)
  4011a0:	00808825 	move	s1,a0
  4011a4:	afb00040 	sw	s0,64(sp)
  4011a8:	afbf0054 	sw	ra,84(sp)
  4011ac:	afbc0028 	sw	gp,40(sp)
  4011b0:	8c630000 	lw	v1,0(v1)
  4011b4:	8fb00068 	lw	s0,104(sp)
  4011b8:	afa3003c 	sw	v1,60(sp)
  4011bc:	10400005 	beqz	v0,4011d4 <__assert_fail_base+0x64>
  4011c0:	8f998370 	lw	t9,-31888(gp)
  4011c4:	00002825 	move	a1,zero
  4011c8:	0320f809 	jalr	t9
  4011cc:	24040001 	li	a0,1
  4011d0:	8fbc0028 	lw	gp,40(sp)
  4011d4:	8f8280bc 	lw	v0,-32580(gp)
  4011d8:	8c460000 	lw	a2,0(v0)
  4011dc:	80c20000 	lb	v0,0(a2)
  4011e0:	14400051 	bnez	v0,401328 <__assert_fail_base+0x1b8>
  4011e4:	3c020046 	lui	v0,0x46
  4011e8:	3c020047 	lui	v0,0x47
  4011ec:	24477208 	addiu	a3,v0,29192
  4011f0:	12000058 	beqz	s0,401354 <__assert_fail_base+0x1e4>
  4011f4:	00000000 	nop
  4011f8:	3c020046 	lui	v0,0x46
  4011fc:	244254ac 	addiu	v0,v0,21676
  401200:	3c190040 	lui	t9,0x40
  401204:	afa2001c 	sw	v0,28(sp)
  401208:	27a20038 	addiu	v0,sp,56
  40120c:	afb40020 	sw	s4,32(sp)
  401210:	27a40034 	addiu	a0,sp,52
  401214:	afb00018 	sw	s0,24(sp)
  401218:	27397ff0 	addiu	t9,t9,32752
  40121c:	afa20024 	sw	v0,36(sp)
  401220:	afb30014 	sw	s3,20(sp)
  401224:	02202825 	move	a1,s1
  401228:	04111b71 	bal	407ff0 <___asprintf>
  40122c:	afb20010 	sw	s2,16(sp)
  401230:	0440003f 	bltz	v0,401330 <__assert_fail_base+0x1c0>
  401234:	3c050048 	lui	a1,0x48
  401238:	8fa60034 	lw	a2,52(sp)
  40123c:	3c190041 	lui	t9,0x41
  401240:	24a59d38 	addiu	a1,a1,-25288
  401244:	00002025 	move	a0,zero
  401248:	273983d4 	addiu	t9,t9,-31788
  40124c:	04111c61 	bal	4083d4 <__fxprintf>
  401250:	2411ffff 	li	s1,-1
  401254:	3c190041 	lui	t9,0x41
  401258:	8fbc0028 	lw	gp,40(sp)
  40125c:	27398910 	addiu	t9,t9,-30448
  401260:	8f8280c0 	lw	v0,-32576(gp)
  401264:	04111daa 	bal	408910 <_IO_fflush>
  401268:	8c440000 	lw	a0,0(v0)
  40126c:	3c190042 	lui	t9,0x42
  401270:	8fbc0028 	lw	gp,40(sp)
  401274:	24070802 	li	a3,2050
  401278:	8fa50038 	lw	a1,56(sp)
  40127c:	24060003 	li	a2,3
  401280:	afa00014 	sw	zero,20(sp)
  401284:	00002025 	move	a0,zero
  401288:	afb10010 	sw	s1,16(sp)
  40128c:	2739daa0 	addiu	t9,t9,-9568
  401290:	8f8280c4 	lw	v0,-32572(gp)
  401294:	8c420000 	lw	v0,0(v0)
  401298:	00452821 	addu	a1,v0,a1
  40129c:	00021023 	negu	v0,v0
  4012a0:	00a22824 	and	a1,a1,v0
  4012a4:	041171fe 	bal	41daa0 <__mmap>
  4012a8:	afa50038 	sw	a1,56(sp)
  4012ac:	8fbc0028 	lw	gp,40(sp)
  4012b0:	10510016 	beq	v0,s1,40130c <__assert_fail_base+0x19c>
  4012b4:	00408025 	move	s0,v0
  4012b8:	24440004 	addiu	a0,v0,4
  4012bc:	8fa20038 	lw	v0,56(sp)
  4012c0:	3c190042 	lui	t9,0x42
  4012c4:	8fa50034 	lw	a1,52(sp)
  4012c8:	27399a90 	addiu	t9,t9,-25968
  4012cc:	041161f0 	bal	419a90 <strcpy>
  4012d0:	ae020000 	sw	v0,0(s0)
  4012d4:	3c020049 	lui	v0,0x49
  4012d8:	8fbc0028 	lw	gp,40(sp)
  4012dc:	c0442a80 	ll	a0,10880(v0)
  4012e0:	02000825 	move	at,s0
  4012e4:	e0412a80 	sc	at,10880(v0)
  4012e8:	1020fffc 	beqz	at,4012dc <__assert_fail_base+0x16c>
  4012ec:	00000000 	nop
  4012f0:	0000000f 	sync
  4012f4:	10800005 	beqz	a0,40130c <__assert_fail_base+0x19c>
  4012f8:	3c190042 	lui	t9,0x42
  4012fc:	2739dc2c 	addiu	t9,t9,-9172
  401300:	0411724a 	bal	41dc2c <__munmap>
  401304:	8c850000 	lw	a1,0(a0)
  401308:	8fbc0028 	lw	gp,40(sp)
  40130c:	8f998054 	lw	t9,-32684(gp)
  401310:	04115af8 	bal	417ef4 <__free>
  401314:	8fa40034 	lw	a0,52(sp)
  401318:	3c190040 	lui	t9,0x40
  40131c:	273902e0 	addiu	t9,t9,736
  401320:	0411fbef 	bal	4002e0 <abort>
  401324:	00000000 	nop
  401328:	1000ffb1 	b	4011f0 <__assert_fail_base+0x80>
  40132c:	244754ac 	addiu	a3,v0,21676
  401330:	3c050046 	lui	a1,0x46
  401334:	3c190042 	lui	t9,0x42
  401338:	24060012 	li	a2,18
  40133c:	24a554dc 	addiu	a1,a1,21724
  401340:	2739cb50 	addiu	t9,t9,-13488
  401344:	04116e02 	bal	41cb50 <__libc_write>
  401348:	24040002 	li	a0,2
  40134c:	1000fff3 	b	40131c <__assert_fail_base+0x1ac>
  401350:	3c190040 	lui	t9,0x40
  401354:	3c100047 	lui	s0,0x47
  401358:	26107208 	addiu	s0,s0,29192
  40135c:	1000ffa8 	b	401200 <__assert_fail_base+0x90>
  401360:	02001025 	move	v0,s0

00401364 <__assert_fail>:
  401364:	27bdffc8 	addiu	sp,sp,-56
  401368:	3c190040 	lui	t9,0x40
  40136c:	afb10028 	sw	s1,40(sp)
  401370:	00a08825 	move	s1,a1
  401374:	afb00024 	sw	s0,36(sp)
  401378:	3c050046 	lui	a1,0x46
  40137c:	00808025 	move	s0,a0
  401380:	afb2002c 	sw	s2,44(sp)
  401384:	3c040047 	lui	a0,0x47
  401388:	afb30030 	sw	s3,48(sp)
  40138c:	24a554b0 	addiu	a1,a1,21680
  401390:	afbf0034 	sw	ra,52(sp)
  401394:	24845e74 	addiu	a0,a0,24180
  401398:	00c09025 	move	s2,a2
  40139c:	273913d0 	addiu	t9,t9,5072
  4013a0:	24060005 	li	a2,5
  4013a4:	0411000a 	bal	4013d0 <__dcgettext>
  4013a8:	00e09825 	move	s3,a3
  4013ac:	02403825 	move	a3,s2
  4013b0:	afb30010 	sw	s3,16(sp)
  4013b4:	02203025 	move	a2,s1
  4013b8:	02002825 	move	a1,s0
  4013bc:	0c10045c 	jal	401170 <__assert_fail_base>
  4013c0:	00402025 	move	a0,v0
	...

004013d0 <__dcgettext>:
  4013d0:	27bdffd8 	addiu	sp,sp,-40
  4013d4:	3c190040 	lui	t9,0x40
  4013d8:	00003825 	move	a3,zero
  4013dc:	afa60014 	sw	a2,20(sp)
  4013e0:	27392488 	addiu	t9,t9,9352
  4013e4:	afa00010 	sw	zero,16(sp)
  4013e8:	afbf0024 	sw	ra,36(sp)
  4013ec:	04110426 	bal	402488 <__dcigettext>
  4013f0:	00003025 	move	a2,zero
  4013f4:	8fbf0024 	lw	ra,36(sp)
  4013f8:	03e00008 	jr	ra
  4013fc:	27bd0028 	addiu	sp,sp,40

00401400 <plural_eval>:
  401400:	27bdffd0 	addiu	sp,sp,-48
  401404:	afb0001c 	sw	s0,28(sp)
  401408:	00808025 	move	s0,a0
  40140c:	afb10020 	sw	s1,32(sp)
  401410:	24110002 	li	s1,2
  401414:	afb30028 	sw	s3,40(sp)
  401418:	24130001 	li	s3,1
  40141c:	afb20024 	sw	s2,36(sp)
  401420:	afbf002c 	sw	ra,44(sp)
  401424:	8e020000 	lw	v0,0(s0)
  401428:	10510021 	beq	v0,s1,4014b0 <plural_eval+0xb0>
  40142c:	24120003 	li	s2,3
  401430:	28430003 	slti	v1,v0,3
  401434:	10600010 	beqz	v1,401478 <plural_eval+0x78>
  401438:	00000000 	nop
  40143c:	10400035 	beqz	v0,401514 <plural_eval+0x114>
  401440:	24030001 	li	v1,1
  401444:	14430039 	bne	v0,v1,40152c <plural_eval+0x12c>
  401448:	8fbf002c 	lw	ra,44(sp)
  40144c:	0c100500 	jal	401400 <plural_eval>
  401450:	8e040008 	lw	a0,8(s0)
  401454:	2c510001 	sltiu	s1,v0,1
  401458:	8fbf002c 	lw	ra,44(sp)
  40145c:	02201025 	move	v0,s1
  401460:	8fb30028 	lw	s3,40(sp)
  401464:	8fb20024 	lw	s2,36(sp)
  401468:	8fb10020 	lw	s1,32(sp)
  40146c:	8fb0001c 	lw	s0,28(sp)
  401470:	03e00008 	jr	ra
  401474:	27bd0030 	addiu	sp,sp,48
  401478:	1452002c 	bne	v0,s2,40152c <plural_eval+0x12c>
  40147c:	8fbf002c 	lw	ra,44(sp)
  401480:	8e040008 	lw	a0,8(s0)
  401484:	0c100500 	jal	401400 <plural_eval>
  401488:	afa50034 	sw	a1,52(sp)
  40148c:	02202025 	move	a0,s1
  401490:	0262200b 	movn	a0,s3,v0
  401494:	24840002 	addiu	a0,a0,2
  401498:	00042080 	sll	a0,a0,0x2
  40149c:	02048021 	addu	s0,s0,a0
  4014a0:	8e100000 	lw	s0,0(s0)
  4014a4:	8e020000 	lw	v0,0(s0)
  4014a8:	1451ffe1 	bne	v0,s1,401430 <plural_eval+0x30>
  4014ac:	8fa50034 	lw	a1,52(sp)
  4014b0:	8e040008 	lw	a0,8(s0)
  4014b4:	0c100500 	jal	401400 <plural_eval>
  4014b8:	afa50034 	sw	a1,52(sp)
  4014bc:	2404000f 	li	a0,15
  4014c0:	8e030004 	lw	v1,4(s0)
  4014c4:	00408825 	move	s1,v0
  4014c8:	10640022 	beq	v1,a0,401554 <plural_eval+0x154>
  4014cc:	8fa50034 	lw	a1,52(sp)
  4014d0:	2402000e 	li	v0,14
  4014d4:	10620023 	beq	v1,v0,401564 <plural_eval+0x164>
  4014d8:	00000000 	nop
  4014dc:	0c100500 	jal	401400 <plural_eval>
  4014e0:	8e04000c 	lw	a0,12(s0)
  4014e4:	8e030004 	lw	v1,4(s0)
  4014e8:	00408025 	move	s0,v0
  4014ec:	2463fffd 	addiu	v1,v1,-3
  4014f0:	2c62000b 	sltiu	v0,v1,11
  4014f4:	1040000c 	beqz	v0,401528 <plural_eval+0x128>
  4014f8:	3c040046 	lui	a0,0x46
  4014fc:	00031880 	sll	v1,v1,0x2
  401500:	248454f0 	addiu	a0,a0,21744
  401504:	00831821 	addu	v1,a0,v1
  401508:	8c620000 	lw	v0,0(v1)
  40150c:	00400008 	jr	v0
  401510:	00000000 	nop
  401514:	8e020004 	lw	v0,4(s0)
  401518:	1040ffcf 	beqz	v0,401458 <plural_eval+0x58>
  40151c:	00a08825 	move	s1,a1
  401520:	1043000a 	beq	v0,v1,40154c <plural_eval+0x14c>
  401524:	00000000 	nop
  401528:	8fbf002c 	lw	ra,44(sp)
  40152c:	00008825 	move	s1,zero
  401530:	8fb30028 	lw	s3,40(sp)
  401534:	8fb20024 	lw	s2,36(sp)
  401538:	02201025 	move	v0,s1
  40153c:	8fb10020 	lw	s1,32(sp)
  401540:	8fb0001c 	lw	s0,28(sp)
  401544:	03e00008 	jr	ra
  401548:	27bd0030 	addiu	sp,sp,48
  40154c:	1000ffc2 	b	401458 <plural_eval+0x58>
  401550:	8e110008 	lw	s1,8(s0)
  401554:	10400005 	beqz	v0,40156c <plural_eval+0x16c>
  401558:	00000000 	nop
  40155c:	1000ffbe 	b	401458 <plural_eval+0x58>
  401560:	24110001 	li	s1,1
  401564:	1220ffbd 	beqz	s1,40145c <plural_eval+0x5c>
  401568:	8fbf002c 	lw	ra,44(sp)
  40156c:	0c100500 	jal	401400 <plural_eval>
  401570:	8e04000c 	lw	a0,12(s0)
  401574:	1000ffb8 	b	401458 <plural_eval+0x58>
  401578:	0002882b 	sltu	s1,zero,v0
  40157c:	02308826 	xor	s1,s1,s0
  401580:	1000ffb5 	b	401458 <plural_eval+0x58>
  401584:	0011882b 	sltu	s1,zero,s1
  401588:	1200001e 	beqz	s0,401604 <plural_eval+0x204>
  40158c:	3c190040 	lui	t9,0x40
  401590:	020001f4 	teq	s0,zero,0x7
  401594:	0230001b 	divu	zero,s1,s0
  401598:	1000ffaf 	b	401458 <plural_eval+0x58>
  40159c:	00008812 	mflo	s1
  4015a0:	1000ffad 	b	401458 <plural_eval+0x58>
  4015a4:	72308802 	mul	s1,s1,s0
  4015a8:	02308826 	xor	s1,s1,s0
  4015ac:	1000ffaa 	b	401458 <plural_eval+0x58>
  4015b0:	2e310001 	sltiu	s1,s1,1
  4015b4:	0230882b 	sltu	s1,s1,s0
  4015b8:	1000ffa7 	b	401458 <plural_eval+0x58>
  4015bc:	3a310001 	xori	s1,s1,0x1
  4015c0:	0211882b 	sltu	s1,s0,s1
  4015c4:	1000ffa4 	b	401458 <plural_eval+0x58>
  4015c8:	3a310001 	xori	s1,s1,0x1
  4015cc:	1000ffa2 	b	401458 <plural_eval+0x58>
  4015d0:	0211882b 	sltu	s1,s0,s1
  4015d4:	1000ffa0 	b	401458 <plural_eval+0x58>
  4015d8:	0230882b 	sltu	s1,s1,s0
  4015dc:	1000ff9e 	b	401458 <plural_eval+0x58>
  4015e0:	02308823 	subu	s1,s1,s0
  4015e4:	1000ff9c 	b	401458 <plural_eval+0x58>
  4015e8:	02308821 	addu	s1,s1,s0
  4015ec:	1200000a 	beqz	s0,401618 <plural_eval+0x218>
  4015f0:	3c190040 	lui	t9,0x40
  4015f4:	020001f4 	teq	s0,zero,0x7
  4015f8:	0230001b 	divu	zero,s1,s0
  4015fc:	1000ff96 	b	401458 <plural_eval+0x58>
  401600:	00008810 	mfhi	s1
  401604:	273967a0 	addiu	t9,t9,26528
  401608:	04111465 	bal	4067a0 <raise>
  40160c:	24040008 	li	a0,8
  401610:	1000ffdf 	b	401590 <plural_eval+0x190>
  401614:	00000000 	nop
  401618:	273967a0 	addiu	t9,t9,26528
  40161c:	04111460 	bal	4067a0 <raise>
  401620:	24040008 	li	a0,8
  401624:	1000fff3 	b	4015f4 <plural_eval+0x1f4>
  401628:	00000000 	nop

0040162c <transcmp>:
  40162c:	27bdffd8 	addiu	sp,sp,-40
  401630:	8c820010 	lw	v0,16(a0)
  401634:	afb1001c 	sw	s1,28(sp)
  401638:	00808825 	move	s1,a0
  40163c:	afb00018 	sw	s0,24(sp)
  401640:	00a08025 	move	s0,a1
  401644:	afbf0024 	sw	ra,36(sp)
  401648:	10400023 	beqz	v0,4016d8 <transcmp+0xac>
  40164c:	afb20020 	sw	s2,32(sp)
  401650:	2484001c 	addiu	a0,a0,28
  401654:	8e020010 	lw	v0,16(s0)
  401658:	1040001d 	beqz	v0,4016d0 <transcmp+0xa4>
  40165c:	00000000 	nop
  401660:	2605001c 	addiu	a1,s0,28
  401664:	3c120042 	lui	s2,0x42
  401668:	26529850 	addiu	s2,s2,-26544
  40166c:	0240c825 	move	t9,s2
  401670:	04116077 	bal	419850 <strcmp>
  401674:	00000000 	nop
  401678:	14400010 	bnez	v0,4016bc <transcmp+0x90>
  40167c:	8fbf0024 	lw	ra,36(sp)
  401680:	8e050000 	lw	a1,0(s0)
  401684:	0240c825 	move	t9,s2
  401688:	04116071 	bal	419850 <strcmp>
  40168c:	8e240000 	lw	a0,0(s1)
  401690:	1440000a 	bnez	v0,4016bc <transcmp+0x90>
  401694:	8fbf0024 	lw	ra,36(sp)
  401698:	8e050008 	lw	a1,8(s0)
  40169c:	0240c825 	move	t9,s2
  4016a0:	0411606b 	bal	419850 <strcmp>
  4016a4:	8e240008 	lw	a0,8(s1)
  4016a8:	14400004 	bnez	v0,4016bc <transcmp+0x90>
  4016ac:	8fbf0024 	lw	ra,36(sp)
  4016b0:	8e220004 	lw	v0,4(s1)
  4016b4:	8e030004 	lw	v1,4(s0)
  4016b8:	00431023 	subu	v0,v0,v1
  4016bc:	8fb20020 	lw	s2,32(sp)
  4016c0:	8fb1001c 	lw	s1,28(sp)
  4016c4:	8fb00018 	lw	s0,24(sp)
  4016c8:	03e00008 	jr	ra
  4016cc:	27bd0028 	addiu	sp,sp,40
  4016d0:	1000ffe4 	b	401664 <transcmp+0x38>
  4016d4:	8e05001c 	lw	a1,28(s0)
  4016d8:	1000ffde 	b	401654 <transcmp+0x28>
  4016dc:	8c84001c 	lw	a0,28(a0)

004016e0 <plural_lookup.isra.0>:
  4016e0:	27bdffd0 	addiu	sp,sp,-48
  4016e4:	afb00018 	sw	s0,24(sp)
  4016e8:	00808025 	move	s0,a0
  4016ec:	afb30024 	sw	s3,36(sp)
  4016f0:	00c09825 	move	s3,a2
  4016f4:	afb1001c 	sw	s1,28(sp)
  4016f8:	00e08825 	move	s1,a3
  4016fc:	afbf002c 	sw	ra,44(sp)
  401700:	afb40028 	sw	s4,40(sp)
  401704:	afb20020 	sw	s2,32(sp)
  401708:	0c100500 	jal	401400 <plural_eval>
  40170c:	8c840060 	lw	a0,96(a0)
  401710:	8e030064 	lw	v1,100(s0)
  401714:	0043182b 	sltu	v1,v0,v1
  401718:	10600012 	beqz	v1,401764 <plural_lookup.isra.0+0x84>
  40171c:	8fbf002c 	lw	ra,44(sp)
  401720:	3c120042 	lui	s2,0x42
  401724:	2414ffff 	li	s4,-1
  401728:	2652b760 	addiu	s2,s2,-18592
  40172c:	02718821 	addu	s1,s3,s1
  401730:	00408025 	move	s0,v0
  401734:	02602025 	move	a0,s3
  401738:	2610ffff 	addiu	s0,s0,-1
  40173c:	12140011 	beq	s0,s4,401784 <plural_lookup.isra.0+0xa4>
  401740:	00002825 	move	a1,zero
  401744:	0240c825 	move	t9,s2
  401748:	04116805 	bal	41b760 <__rawmemchr>
  40174c:	00000000 	nop
  401750:	24440001 	addiu	a0,v0,1
  401754:	0091102b 	sltu	v0,a0,s1
  401758:	1440fff8 	bnez	v0,40173c <plural_lookup.isra.0+0x5c>
  40175c:	2610ffff 	addiu	s0,s0,-1
  401760:	8fbf002c 	lw	ra,44(sp)
  401764:	02601025 	move	v0,s3
  401768:	8fb40028 	lw	s4,40(sp)
  40176c:	8fb30024 	lw	s3,36(sp)
  401770:	8fb20020 	lw	s2,32(sp)
  401774:	8fb1001c 	lw	s1,28(sp)
  401778:	8fb00018 	lw	s0,24(sp)
  40177c:	03e00008 	jr	ra
  401780:	27bd0030 	addiu	sp,sp,48
  401784:	1000fff6 	b	401760 <plural_lookup.isra.0+0x80>
  401788:	00809825 	move	s3,a0

0040178c <_nl_find_msg>:
  40178c:	3c1c004a 	lui	gp,0x4a
  401790:	8c820004 	lw	v0,4(a0)
  401794:	27bdff70 	addiu	sp,sp,-144
  401798:	279ca2b0 	addiu	gp,gp,-23888
  40179c:	afbe0088 	sw	s8,136(sp)
  4017a0:	03a0f025 	move	s8,sp
  4017a4:	8f838038 	lw	v1,-32712(gp)
  4017a8:	8fc800a0 	lw	t0,160(s8)
  4017ac:	afb1006c 	sw	s1,108(sp)
  4017b0:	00c08825 	move	s1,a2
  4017b4:	afc3002c 	sw	v1,44(s8)
  4017b8:	afbf008c 	sw	ra,140(sp)
  4017bc:	afb70084 	sw	s7,132(sp)
  4017c0:	afb60080 	sw	s6,128(sp)
  4017c4:	afb5007c 	sw	s5,124(sp)
  4017c8:	afb40078 	sw	s4,120(sp)
  4017cc:	afb30074 	sw	s3,116(sp)
  4017d0:	afb20070 	sw	s2,112(sp)
  4017d4:	afb00068 	sw	s0,104(sp)
  4017d8:	afbc0018 	sw	gp,24(sp)
  4017dc:	afc40030 	sw	a0,48(s8)
  4017e0:	afc80028 	sw	t0,40(s8)
  4017e4:	afc50024 	sw	a1,36(s8)
  4017e8:	afc7009c 	sw	a3,156(s8)
  4017ec:	8c630000 	lw	v1,0(v1)
  4017f0:	afc30064 	sw	v1,100(s8)
  4017f4:	184000ba 	blez	v0,401ae0 <_nl_find_msg+0x354>
  4017f8:	3c190040 	lui	t9,0x40
  4017fc:	8fc20030 	lw	v0,48(s8)
  401800:	8c570008 	lw	s7,8(v0)
  401804:	12e00053 	beqz	s7,401954 <_nl_find_msg+0x1c8>
  401808:	00000000 	nop
  40180c:	8ee30014 	lw	v1,20(s7)
  401810:	8ee20030 	lw	v0,48(s7)
  401814:	10400062 	beqz	v0,4019a0 <_nl_find_msg+0x214>
  401818:	afc3004c 	sw	v1,76(s8)
  40181c:	3c190042 	lui	t9,0x42
  401820:	27399d50 	addiu	t9,t9,-25264
  401824:	0411614a 	bal	419d50 <strlen>
  401828:	02202025 	move	a0,s1
  40182c:	3c190040 	lui	t9,0x40
  401830:	02202025 	move	a0,s1
  401834:	27396720 	addiu	t9,t9,26400
  401838:	041113b9 	bal	406720 <__hash_string>
  40183c:	0040a825 	move	s5,v0
  401840:	3c190042 	lui	t9,0x42
  401844:	8ee3002c 	lw	v1,44(s7)
  401848:	8fdc0018 	lw	gp,24(s8)
  40184c:	27399850 	addiu	t9,t9,-26544
  401850:	8eeb0034 	lw	t3,52(s7)
  401854:	006001f4 	teq	v1,zero,0x7
  401858:	0043001b 	divu	zero,v0,v1
  40185c:	8eea0030 	lw	t2,48(s7)
  401860:	2474fffe 	addiu	s4,v1,-2
  401864:	00003810 	mfhi	a3
  401868:	028001f4 	teq	s4,zero,0x7
  40186c:	0054001b 	divu	zero,v0,s4
  401870:	0000a010 	mfhi	s4
  401874:	26820001 	addiu	v0,s4,1
  401878:	0062a023 	subu	s4,v1,v0
  40187c:	afc20048 	sw	v0,72(s8)
  401880:	00431023 	subu	v0,v0,v1
  401884:	afc20044 	sw	v0,68(s8)
  401888:	00071080 	sll	v0,a3,0x2
  40188c:	01421021 	addu	v0,t2,v0
  401890:	11600003 	beqz	t3,4018a0 <_nl_find_msg+0x114>
  401894:	8c500000 	lw	s0,0(v0)
  401898:	7c1080a0 	wsbh	s0,s0
  40189c:	00308402 	ror	s0,s0,0x10
  4018a0:	1200002c 	beqz	s0,401954 <_nl_find_msg+0x1c8>
  4018a4:	8fc2004c 	lw	v0,76(s8)
  4018a8:	2610ffff 	addiu	s0,s0,-1
  4018ac:	0202102b 	sltu	v0,s0,v0
  4018b0:	1040005c 	beqz	v0,401a24 <_nl_find_msg+0x298>
  4018b4:	001098c0 	sll	s3,s0,0x3
  4018b8:	8ee40018 	lw	a0,24(s7)
  4018bc:	8ef2000c 	lw	s2,12(s7)
  4018c0:	00932021 	addu	a0,a0,s3
  4018c4:	12400080 	beqz	s2,401ac8 <_nl_find_msg+0x33c>
  4018c8:	8c820000 	lw	v0,0(a0)
  4018cc:	7c0210a0 	wsbh	v0,v0
  4018d0:	00221402 	ror	v0,v0,0x10
  4018d4:	0055102b 	sltu	v0,v0,s5
  4018d8:	14400014 	bnez	v0,40192c <_nl_find_msg+0x1a0>
  4018dc:	00f4102b 	sltu	v0,a3,s4
  4018e0:	8c850004 	lw	a1,4(a0)
  4018e4:	8ef60000 	lw	s6,0(s7)
  4018e8:	7c0528a0 	wsbh	a1,a1
  4018ec:	00252c02 	ror	a1,a1,0x10
  4018f0:	02c52821 	addu	a1,s6,a1
  4018f4:	afca0038 	sw	t2,56(s8)
  4018f8:	afc7003c 	sw	a3,60(s8)
  4018fc:	02202025 	move	a0,s1
  401900:	afcb0040 	sw	t3,64(s8)
  401904:	afd90050 	sw	t9,80(s8)
  401908:	0320f809 	jalr	t9
  40190c:	afd90054 	sw	t9,84(s8)
  401910:	8fdc0018 	lw	gp,24(s8)
  401914:	8fd90054 	lw	t9,84(s8)
  401918:	8fcb0040 	lw	t3,64(s8)
  40191c:	8fc7003c 	lw	a3,60(s8)
  401920:	10400078 	beqz	v0,401b04 <_nl_find_msg+0x378>
  401924:	8fca0038 	lw	t2,56(s8)
  401928:	00f4102b 	sltu	v0,a3,s4
  40192c:	14400062 	bnez	v0,401ab8 <_nl_find_msg+0x32c>
  401930:	8fc20048 	lw	v0,72(s8)
  401934:	8fc20044 	lw	v0,68(s8)
  401938:	00e23821 	addu	a3,a3,v0
  40193c:	00071080 	sll	v0,a3,0x2
  401940:	01421021 	addu	v0,t2,v0
  401944:	1560ffd4 	bnez	t3,401898 <_nl_find_msg+0x10c>
  401948:	8c500000 	lw	s0,0(v0)
  40194c:	1600ffd6 	bnez	s0,4018a8 <_nl_find_msg+0x11c>
  401950:	8fc2004c 	lw	v0,76(s8)
  401954:	00008825 	move	s1,zero
  401958:	8fc2002c 	lw	v0,44(s8)
  40195c:	8fc30064 	lw	v1,100(s8)
  401960:	8c420000 	lw	v0,0(v0)
  401964:	146202c1 	bne	v1,v0,40246c <_nl_find_msg+0xce0>
  401968:	02201025 	move	v0,s1
  40196c:	03c0e825 	move	sp,s8
  401970:	8fbf008c 	lw	ra,140(sp)
  401974:	8fbe0088 	lw	s8,136(sp)
  401978:	8fb70084 	lw	s7,132(sp)
  40197c:	8fb60080 	lw	s6,128(sp)
  401980:	8fb5007c 	lw	s5,124(sp)
  401984:	8fb40078 	lw	s4,120(sp)
  401988:	8fb30074 	lw	s3,116(sp)
  40198c:	8fb20070 	lw	s2,112(sp)
  401990:	8fb1006c 	lw	s1,108(sp)
  401994:	8fb00068 	lw	s0,104(sp)
  401998:	03e00008 	jr	ra
  40199c:	27bd0090 	addiu	sp,sp,144
  4019a0:	3c140042 	lui	s4,0x42
  4019a4:	0000a825 	move	s5,zero
  4019a8:	26999850 	addiu	t9,s4,-26544
  4019ac:	8fd4004c 	lw	s4,76(s8)
  4019b0:	02b4102b 	sltu	v0,s5,s4
  4019b4:	1040ffe7 	beqz	v0,401954 <_nl_find_msg+0x1c8>
  4019b8:	00000000 	nop
  4019bc:	02958021 	addu	s0,s4,s5
  4019c0:	8ee20018 	lw	v0,24(s7)
  4019c4:	8ef2000c 	lw	s2,12(s7)
  4019c8:	00108042 	srl	s0,s0,0x1
  4019cc:	8ef60000 	lw	s6,0(s7)
  4019d0:	001098c0 	sll	s3,s0,0x3
  4019d4:	00531021 	addu	v0,v0,s3
  4019d8:	12400003 	beqz	s2,4019e8 <_nl_find_msg+0x25c>
  4019dc:	8c450004 	lw	a1,4(v0)
  4019e0:	7c0528a0 	wsbh	a1,a1
  4019e4:	00252c02 	ror	a1,a1,0x10
  4019e8:	02c52821 	addu	a1,s6,a1
  4019ec:	afd90050 	sw	t9,80(s8)
  4019f0:	afd90054 	sw	t9,84(s8)
  4019f4:	0320f809 	jalr	t9
  4019f8:	02202025 	move	a0,s1
  4019fc:	8fdc0018 	lw	gp,24(s8)
  401a00:	0440002f 	bltz	v0,401ac0 <_nl_find_msg+0x334>
  401a04:	8fd90054 	lw	t9,84(s8)
  401a08:	1040003a 	beqz	v0,401af4 <_nl_find_msg+0x368>
  401a0c:	26150001 	addiu	s5,s0,1
  401a10:	02b4102b 	sltu	v0,s5,s4
  401a14:	1440ffe9 	bnez	v0,4019bc <_nl_find_msg+0x230>
  401a18:	00000000 	nop
  401a1c:	1000ffce 	b	401958 <_nl_find_msg+0x1cc>
  401a20:	00008825 	move	s1,zero
  401a24:	8fc2004c 	lw	v0,76(s8)
  401a28:	02023023 	subu	a2,s0,v0
  401a2c:	8ee20024 	lw	v0,36(s7)
  401a30:	000618c0 	sll	v1,a2,0x3
  401a34:	afc60054 	sw	a2,84(s8)
  401a38:	00431021 	addu	v0,v0,v1
  401a3c:	8c430000 	lw	v1,0(v0)
  401a40:	02a3182b 	sltu	v1,s5,v1
  401a44:	1060ffb8 	beqz	v1,401928 <_nl_find_msg+0x19c>
  401a48:	02202025 	move	a0,s1
  401a4c:	8c450004 	lw	a1,4(v0)
  401a50:	afca0034 	sw	t2,52(s8)
  401a54:	afc70038 	sw	a3,56(s8)
  401a58:	afcb003c 	sw	t3,60(s8)
  401a5c:	afd90050 	sw	t9,80(s8)
  401a60:	0320f809 	jalr	t9
  401a64:	afd90040 	sw	t9,64(s8)
  401a68:	8fdc0018 	lw	gp,24(s8)
  401a6c:	8fd90040 	lw	t9,64(s8)
  401a70:	8fcb003c 	lw	t3,60(s8)
  401a74:	8fc70038 	lw	a3,56(s8)
  401a78:	8fca0034 	lw	t2,52(s8)
  401a7c:	1440ffaa 	bnez	v0,401928 <_nl_find_msg+0x19c>
  401a80:	8fc60054 	lw	a2,84(s8)
  401a84:	8ee20028 	lw	v0,40(s7)
  401a88:	000630c0 	sll	a2,a2,0x3
  401a8c:	00463021 	addu	a2,v0,a2
  401a90:	8cc20000 	lw	v0,0(a2)
  401a94:	8cd10004 	lw	s1,4(a2)
  401a98:	afc20040 	sw	v0,64(s8)
  401a9c:	8fc2009c 	lw	v0,156(s8)
  401aa0:	14400025 	bnez	v0,401b38 <_nl_find_msg+0x3ac>
  401aa4:	8fc20024 	lw	v0,36(s8)
  401aa8:	8fc20028 	lw	v0,40(s8)
  401aac:	8fc30040 	lw	v1,64(s8)
  401ab0:	1000ffa9 	b	401958 <_nl_find_msg+0x1cc>
  401ab4:	ac430000 	sw	v1,0(v0)
  401ab8:	1000ff73 	b	401888 <_nl_find_msg+0xfc>
  401abc:	00e23821 	addu	a3,a3,v0
  401ac0:	1000ffbb 	b	4019b0 <_nl_find_msg+0x224>
  401ac4:	0200a025 	move	s4,s0
  401ac8:	0055102b 	sltu	v0,v0,s5
  401acc:	1440ff97 	bnez	v0,40192c <_nl_find_msg+0x1a0>
  401ad0:	00f4102b 	sltu	v0,a3,s4
  401ad4:	8ef60000 	lw	s6,0(s7)
  401ad8:	1000ff85 	b	4018f0 <_nl_find_msg+0x164>
  401adc:	8c850004 	lw	a1,4(a0)
  401ae0:	27393130 	addiu	t9,t9,12592
  401ae4:	04110592 	bal	403130 <_nl_load_domain>
  401ae8:	00000000 	nop
  401aec:	1000ff43 	b	4017fc <_nl_find_msg+0x70>
  401af0:	8fdc0018 	lw	gp,24(s8)
  401af4:	8fc2004c 	lw	v0,76(s8)
  401af8:	0202102b 	sltu	v0,s0,v0
  401afc:	1040025e 	beqz	v0,402478 <_nl_find_msg+0xcec>
  401b00:	8fc2004c 	lw	v0,76(s8)
  401b04:	8ee2001c 	lw	v0,28(s7)
  401b08:	00533021 	addu	a2,v0,s3
  401b0c:	8cc20000 	lw	v0,0(a2)
  401b10:	12400100 	beqz	s2,401f14 <_nl_find_msg+0x788>
  401b14:	8cd10004 	lw	s1,4(a2)
  401b18:	7c0210a0 	wsbh	v0,v0
  401b1c:	7c1188a0 	wsbh	s1,s1
  401b20:	00221402 	ror	v0,v0,0x10
  401b24:	00318c02 	ror	s1,s1,0x10
  401b28:	24420001 	addiu	v0,v0,1
  401b2c:	02d18821 	addu	s1,s6,s1
  401b30:	1000ffda 	b	401a9c <_nl_find_msg+0x310>
  401b34:	afc20040 	sw	v0,64(s8)
  401b38:	104000e9 	beqz	v0,401ee0 <_nl_find_msg+0x754>
  401b3c:	3c140049 	lui	s4,0x49
  401b40:	8c550008 	lw	s5,8(v0)
  401b44:	12a000e7 	beqz	s5,401ee4 <_nl_find_msg+0x758>
  401b48:	8e8229e4 	lw	v0,10724(s4)
  401b4c:	8f828388 	lw	v0,-31864(gp)
  401b50:	10400004 	beqz	v0,401b64 <_nl_find_msg+0x3d8>
  401b54:	8f998388 	lw	t9,-31864(gp)
  401b58:	0320f809 	jalr	t9
  401b5c:	26e40040 	addiu	a0,s7,64
  401b60:	8fdc0018 	lw	gp,24(s8)
  401b64:	8ee6003c 	lw	a2,60(s7)
  401b68:	00061840 	sll	v1,a2,0x1
  401b6c:	00661821 	addu	v1,v1,a2
  401b70:	00031880 	sll	v1,v1,0x2
  401b74:	1000000f 	b	401bb4 <_nl_find_msg+0x428>
  401b78:	2463fff4 	addiu	v1,v1,-12
  401b7c:	8ef40038 	lw	s4,56(s7)
  401b80:	24c6ffff 	addiu	a2,a2,-1
  401b84:	02a02825 	move	a1,s5
  401b88:	afc60048 	sw	a2,72(s8)
  401b8c:	0283a021 	addu	s4,s4,v1
  401b90:	2463fff4 	addiu	v1,v1,-12
  401b94:	afc30054 	sw	v1,84(s8)
  401b98:	afc30044 	sw	v1,68(s8)
  401b9c:	0320f809 	jalr	t9
  401ba0:	8e840000 	lw	a0,0(s4)
  401ba4:	8fdc0018 	lw	gp,24(s8)
  401ba8:	8fc30054 	lw	v1,84(s8)
  401bac:	104000dd 	beqz	v0,401f24 <_nl_find_msg+0x798>
  401bb0:	8fc60048 	lw	a2,72(s8)
  401bb4:	14c0fff1 	bnez	a2,401b7c <_nl_find_msg+0x3f0>
  401bb8:	8fd90050 	lw	t9,80(s8)
  401bbc:	8f828374 	lw	v0,-31884(gp)
  401bc0:	10400005 	beqz	v0,401bd8 <_nl_find_msg+0x44c>
  401bc4:	00409825 	move	s3,v0
  401bc8:	8f998374 	lw	t9,-31884(gp)
  401bcc:	0320f809 	jalr	t9
  401bd0:	26e40040 	addiu	a0,s7,64
  401bd4:	8fdc0018 	lw	gp,24(s8)
  401bd8:	8f828394 	lw	v0,-31852(gp)
  401bdc:	10400004 	beqz	v0,401bf0 <_nl_find_msg+0x464>
  401be0:	8f998394 	lw	t9,-31852(gp)
  401be4:	0320f809 	jalr	t9
  401be8:	26e40040 	addiu	a0,s7,64
  401bec:	8fdc0018 	lw	gp,24(s8)
  401bf0:	8ee9003c 	lw	t1,60(s7)
  401bf4:	8ee40038 	lw	a0,56(s7)
  401bf8:	00091040 	sll	v0,t1,0x1
  401bfc:	00809025 	move	s2,a0
  401c00:	00491021 	addu	v0,v0,t1
  401c04:	00021080 	sll	v0,v0,0x2
  401c08:	2443fff4 	addiu	v1,v0,-12
  401c0c:	0040b025 	move	s6,v0
  401c10:	1000000d 	b	401c48 <_nl_find_msg+0x4bc>
  401c14:	00831821 	addu	v1,a0,v1
  401c18:	2529ffff 	addiu	t1,t1,-1
  401c1c:	8c640000 	lw	a0,0(v1)
  401c20:	02a02825 	move	a1,s5
  401c24:	afc30048 	sw	v1,72(s8)
  401c28:	0060a025 	move	s4,v1
  401c2c:	afc90054 	sw	t1,84(s8)
  401c30:	0320f809 	jalr	t9
  401c34:	afc90044 	sw	t1,68(s8)
  401c38:	2683fff4 	addiu	v1,s4,-12
  401c3c:	8fdc0018 	lw	gp,24(s8)
  401c40:	10400090 	beqz	v0,401e84 <_nl_find_msg+0x6f8>
  401c44:	8fc90054 	lw	t1,84(s8)
  401c48:	1520fff3 	bnez	t1,401c18 <_nl_find_msg+0x48c>
  401c4c:	8fd90050 	lw	t9,80(s8)
  401c50:	26c5000c 	addiu	a1,s6,12
  401c54:	afc90054 	sw	t1,84(s8)
  401c58:	12400179 	beqz	s2,402240 <_nl_find_msg+0xab4>
  401c5c:	02402025 	move	a0,s2
  401c60:	8f9980c8 	lw	t9,-32568(gp)
  401c64:	0411594c 	bal	418198 <__libc_realloc>
  401c68:	00000000 	nop
  401c6c:	8fdc0018 	lw	gp,24(s8)
  401c70:	0040a025 	move	s4,v0
  401c74:	8fc90054 	lw	t1,84(s8)
  401c78:	12800197 	beqz	s4,4022d8 <_nl_find_msg+0xb4c>
  401c7c:	3c190042 	lui	t9,0x42
  401c80:	afc90054 	sw	t1,84(s8)
  401c84:	aef40038 	sw	s4,56(s7)
  401c88:	27399cd0 	addiu	t9,t9,-25392
  401c8c:	04116010 	bal	419cd0 <__strdup>
  401c90:	02a02025 	move	a0,s5
  401c94:	8fdc0018 	lw	gp,24(s8)
  401c98:	1040018f 	beqz	v0,4022d8 <_nl_find_msg+0xb4c>
  401c9c:	00409025 	move	s2,v0
  401ca0:	0296a021 	addu	s4,s4,s6
  401ca4:	8fc40030 	lw	a0,48(s8)
  401ca8:	3c060047 	lui	a2,0x47
  401cac:	8fc50024 	lw	a1,36(s8)
  401cb0:	2415ffff 	li	s5,-1
  401cb4:	ae820000 	sw	v0,0(s4)
  401cb8:	27c20060 	addiu	v0,s8,96
  401cbc:	00003825 	move	a3,zero
  401cc0:	ae950004 	sw	s5,4(s4)
  401cc4:	24c67208 	addiu	a2,a2,29192
  401cc8:	0c1005e3 	jal	40178c <_nl_find_msg>
  401ccc:	afa20010 	sw	v0,16(sp)
  401cd0:	8fdc0018 	lw	gp,24(s8)
  401cd4:	105501b9 	beq	v0,s5,4023bc <_nl_find_msg+0xc30>
  401cd8:	00402025 	move	a0,v0
  401cdc:	10400065 	beqz	v0,401e74 <_nl_find_msg+0x6e8>
  401ce0:	3c050046 	lui	a1,0x46
  401ce4:	3c190042 	lui	t9,0x42
  401ce8:	2739a40c 	addiu	t9,t9,-23540
  401cec:	041161c7 	bal	41a40c <strstr>
  401cf0:	24a55530 	addiu	a1,a1,21808
  401cf4:	1040005f 	beqz	v0,401e74 <_nl_find_msg+0x6e8>
  401cf8:	8fdc0018 	lw	gp,24(s8)
  401cfc:	3c050046 	lui	a1,0x46
  401d00:	3c190042 	lui	t9,0x42
  401d04:	24550008 	addiu	s5,v0,8
  401d08:	24a5553c 	addiu	a1,a1,21820
  401d0c:	27399af0 	addiu	t9,t9,-25872
  401d10:	04115f77 	bal	419af0 <strcspn>
  401d14:	02a02025 	move	a0,s5
  401d18:	3c190042 	lui	t9,0x42
  401d1c:	00403025 	move	a2,v0
  401d20:	24420008 	addiu	v0,v0,8
  401d24:	02a02825 	move	a1,s5
  401d28:	000210c2 	srl	v0,v0,0x3
  401d2c:	2739adb0 	addiu	t9,t9,-21072
  401d30:	000210c0 	sll	v0,v0,0x3
  401d34:	03a2e823 	subu	sp,sp,v0
  401d38:	27b50018 	addiu	s5,sp,24
  401d3c:	0411641c 	bal	41adb0 <mempcpy>
  401d40:	02a02025 	move	a0,s5
  401d44:	82450000 	lb	a1,0(s2)
  401d48:	8fc90054 	lw	t1,84(s8)
  401d4c:	10a001a8 	beqz	a1,4023f0 <_nl_find_msg+0xc64>
  401d50:	a0400000 	sb	zero,0(v0)
  401d54:	00003825 	move	a3,zero
  401d58:	2404002f 	li	a0,47
  401d5c:	02401025 	move	v0,s2
  401d60:	00a01825 	move	v1,a1
  401d64:	14640002 	bne	v1,a0,401d70 <_nl_find_msg+0x5e4>
  401d68:	24420001 	addiu	v0,v0,1
  401d6c:	24e70001 	addiu	a3,a3,1
  401d70:	80430000 	lb	v1,0(v0)
  401d74:	1460fffb 	bnez	v1,401d64 <_nl_find_msg+0x5d8>
  401d78:	02403025 	move	a2,s2
  401d7c:	00521023 	subu	v0,v0,s2
  401d80:	3c030049 	lui	v1,0x49
  401d84:	24420012 	addiu	v0,v0,18
  401d88:	000210c2 	srl	v0,v0,0x3
  401d8c:	8c6a0fa8 	lw	t2,4008(v1)
  401d90:	000210c0 	sll	v0,v0,0x3
  401d94:	03a2e823 	subu	sp,sp,v0
  401d98:	27a40018 	addiu	a0,sp,24
  401d9c:	00801025 	move	v0,a0
  401da0:	00051880 	sll	v1,a1,0x2
  401da4:	80c50001 	lb	a1,1(a2)
  401da8:	00405825 	move	t3,v0
  401dac:	01431821 	addu	v1,t2,v1
  401db0:	24420001 	addiu	v0,v0,1
  401db4:	24c60001 	addiu	a2,a2,1
  401db8:	8c630000 	lw	v1,0(v1)
  401dbc:	14a0fff8 	bnez	a1,401da0 <_nl_find_msg+0x614>
  401dc0:	a043ffff 	sb	v1,-1(v0)
  401dc4:	2ce30002 	sltiu	v1,a3,2
  401dc8:	14600166 	bnez	v1,402364 <_nl_find_msg+0xbd8>
  401dcc:	2403002f 	li	v1,47
  401dd0:	82a60000 	lb	a2,0(s5)
  401dd4:	10c0019f 	beqz	a2,402454 <_nl_find_msg+0xcc8>
  401dd8:	a0400000 	sb	zero,0(v0)
  401ddc:	2405002f 	li	a1,47
  401de0:	00c01825 	move	v1,a2
  401de4:	02a01025 	move	v0,s5
  401de8:	14650002 	bne	v1,a1,401df4 <_nl_find_msg+0x668>
  401dec:	24420001 	addiu	v0,v0,1
  401df0:	25290001 	addiu	t1,t1,1
  401df4:	80430000 	lb	v1,0(v0)
  401df8:	1460fffb 	bnez	v1,401de8 <_nl_find_msg+0x65c>
  401dfc:	00000000 	nop
  401e00:	00551023 	subu	v0,v0,s5
  401e04:	3c030049 	lui	v1,0x49
  401e08:	2442000a 	addiu	v0,v0,10
  401e0c:	000210c2 	srl	v0,v0,0x3
  401e10:	8c670fa8 	lw	a3,4008(v1)
  401e14:	000210c0 	sll	v0,v0,0x3
  401e18:	03a2e823 	subu	sp,sp,v0
  401e1c:	27a50018 	addiu	a1,sp,24
  401e20:	00a01025 	move	v0,a1
  401e24:	00061880 	sll	v1,a2,0x2
  401e28:	82a60001 	lb	a2,1(s5)
  401e2c:	00405025 	move	t2,v0
  401e30:	00e31821 	addu	v1,a3,v1
  401e34:	24420001 	addiu	v0,v0,1
  401e38:	26b50001 	addiu	s5,s5,1
  401e3c:	8c630000 	lw	v1,0(v1)
  401e40:	14c0fff8 	bnez	a2,401e24 <_nl_find_msg+0x698>
  401e44:	a043ffff 	sb	v1,-1(v0)
  401e48:	2d230002 	sltiu	v1,t1,2
  401e4c:	14600149 	bnez	v1,402374 <_nl_find_msg+0xbe8>
  401e50:	2403002f 	li	v1,47
  401e54:	3c190042 	lui	t9,0x42
  401e58:	a0400000 	sb	zero,0(v0)
  401e5c:	24070001 	li	a3,1
  401e60:	27390e60 	addiu	t9,t9,3680
  401e64:	04117bfe 	bal	420e60 <__gconv_open>
  401e68:	26860004 	addiu	a2,s4,4
  401e6c:	14400145 	bnez	v0,402384 <_nl_find_msg+0xbf8>
  401e70:	8fdc0018 	lw	gp,24(s8)
  401e74:	8ee2003c 	lw	v0,60(s7)
  401e78:	ae800008 	sw	zero,8(s4)
  401e7c:	24420001 	addiu	v0,v0,1
  401e80:	aee2003c 	sw	v0,60(s7)
  401e84:	12600004 	beqz	s3,401e98 <_nl_find_msg+0x70c>
  401e88:	8f998374 	lw	t9,-31884(gp)
  401e8c:	0320f809 	jalr	t9
  401e90:	26e40040 	addiu	a0,s7,64
  401e94:	8fdc0018 	lw	gp,24(s8)
  401e98:	8e830004 	lw	v1,4(s4)
  401e9c:	2402ffff 	li	v0,-1
  401ea0:	1062ff02 	beq	v1,v0,401aac <_nl_find_msg+0x320>
  401ea4:	8fc20028 	lw	v0,40(s8)
  401ea8:	8e820008 	lw	v0,8(s4)
  401eac:	104000c0 	beqz	v0,4021b0 <_nl_find_msg+0xa24>
  401eb0:	00000000 	nop
  401eb4:	2403ffff 	li	v1,-1
  401eb8:	104300bb 	beq	v0,v1,4021a8 <_nl_find_msg+0xa1c>
  401ebc:	00101880 	sll	v1,s0,0x2
  401ec0:	00431021 	addu	v0,v0,v1
  401ec4:	8c420000 	lw	v0,0(v0)
  401ec8:	10400044 	beqz	v0,401fdc <_nl_find_msg+0x850>
  401ecc:	00000000 	nop
  401ed0:	8c430000 	lw	v1,0(v0)
  401ed4:	24510004 	addiu	s1,v0,4
  401ed8:	1000fef3 	b	401aa8 <_nl_find_msg+0x31c>
  401edc:	afc30040 	sw	v1,64(s8)
  401ee0:	8e8229e4 	lw	v0,10724(s4)
  401ee4:	10400014 	beqz	v0,401f38 <_nl_find_msg+0x7ac>
  401ee8:	3c020049 	lui	v0,0x49
  401eec:	8c5529e0 	lw	s5,10720(v0)
  401ef0:	16a0ff17 	bnez	s5,401b50 <_nl_find_msg+0x3c4>
  401ef4:	8f828388 	lw	v0,-31864(gp)
  401ef8:	8f8283d0 	lw	v0,-31792(gp)
  401efc:	7c03e83b 	rdhwr	v1,$29
  401f00:	00431021 	addu	v0,v0,v1
  401f04:	8c420000 	lw	v0,0(v0)
  401f08:	8c420000 	lw	v0,0(v0)
  401f0c:	1000ff0f 	b	401b4c <_nl_find_msg+0x3c0>
  401f10:	8c55005c 	lw	s5,92(v0)
  401f14:	24420001 	addiu	v0,v0,1
  401f18:	02d18821 	addu	s1,s6,s1
  401f1c:	1000fedf 	b	401a9c <_nl_find_msg+0x310>
  401f20:	afc20040 	sw	v0,64(s8)
  401f24:	8f828374 	lw	v0,-31884(gp)
  401f28:	1440ffd8 	bnez	v0,401e8c <_nl_find_msg+0x700>
  401f2c:	8f998374 	lw	t9,-31884(gp)
  401f30:	1000ffda 	b	401e9c <_nl_find_msg+0x710>
  401f34:	8e830004 	lw	v1,4(s4)
  401f38:	3c040046 	lui	a0,0x46
  401f3c:	3c190040 	lui	t9,0x40
  401f40:	27397020 	addiu	t9,t9,28704
  401f44:	04111436 	bal	407020 <getenv>
  401f48:	24845520 	addiu	a0,a0,21792
  401f4c:	8fdc0018 	lw	gp,24(s8)
  401f50:	10400004 	beqz	v0,401f64 <_nl_find_msg+0x7d8>
  401f54:	00402825 	move	a1,v0
  401f58:	80420000 	lb	v0,0(v0)
  401f5c:	14400006 	bnez	v0,401f78 <_nl_find_msg+0x7ec>
  401f60:	00000000 	nop
  401f64:	3c020049 	lui	v0,0x49
  401f68:	8c5529e0 	lw	s5,10720(v0)
  401f6c:	24020001 	li	v0,1
  401f70:	1000ffdf 	b	401ef0 <_nl_find_msg+0x764>
  401f74:	ae8229e4 	sw	v0,10724(s4)
  401f78:	3c190042 	lui	t9,0x42
  401f7c:	afc50048 	sw	a1,72(s8)
  401f80:	27399d50 	addiu	t9,t9,-25264
  401f84:	04115f72 	bal	419d50 <strlen>
  401f88:	00a02025 	move	a0,a1
  401f8c:	8fdc0018 	lw	gp,24(s8)
  401f90:	24460001 	addiu	a2,v0,1
  401f94:	00c02025 	move	a0,a2
  401f98:	8f9980cc 	lw	t9,-32564(gp)
  401f9c:	04115608 	bal	4177c0 <__libc_malloc>
  401fa0:	afc60054 	sw	a2,84(s8)
  401fa4:	8fdc0018 	lw	gp,24(s8)
  401fa8:	10400007 	beqz	v0,401fc8 <_nl_find_msg+0x83c>
  401fac:	0040a825 	move	s5,v0
  401fb0:	8f99809c 	lw	t9,-32612(gp)
  401fb4:	00402025 	move	a0,v0
  401fb8:	8fc60054 	lw	a2,84(s8)
  401fbc:	041163c0 	bal	41aec0 <memcpy>
  401fc0:	8fc50048 	lw	a1,72(s8)
  401fc4:	8fdc0018 	lw	gp,24(s8)
  401fc8:	3c020049 	lui	v0,0x49
  401fcc:	ac5529e0 	sw	s5,10720(v0)
  401fd0:	24020001 	li	v0,1
  401fd4:	1000ffc6 	b	401ef0 <_nl_find_msg+0x764>
  401fd8:	ae8229e4 	sw	v0,10724(s4)
  401fdc:	3c020049 	lui	v0,0x49
  401fe0:	00402025 	move	a0,v0
  401fe4:	afc20044 	sw	v0,68(s8)
  401fe8:	c08329f0 	ll	v1,10736(a0)
  401fec:	14600006 	bnez	v1,402008 <_nl_find_msg+0x87c>
  401ff0:	24020000 	li	v0,0
  401ff4:	24010001 	li	at,1
  401ff8:	e08129f0 	sc	at,10736(a0)
  401ffc:	1020fffa 	beqz	at,401fe8 <_nl_find_msg+0x85c>
  402000:	24020001 	li	v0,1
  402004:	0000000f 	sync
  402008:	104000d0 	beqz	v0,40234c <_nl_find_msg+0xbc0>
  40200c:	8fc20044 	lw	v0,68(s8)
  402010:	3c150049 	lui	s5,0x49
  402014:	afd10058 	sw	s1,88(s8)
  402018:	27c3005c 	addiu	v1,s8,92
  40201c:	3c040042 	lui	a0,0x42
  402020:	afc30050 	sw	v1,80(s8)
  402024:	27c30058 	addiu	v1,s8,88
  402028:	8ea229ec 	lw	v0,10732(s5)
  40202c:	3c120049 	lui	s2,0x49
  402030:	afc3004c 	sw	v1,76(s8)
  402034:	24831430 	addiu	v1,a0,5168
  402038:	0000b025 	move	s6,zero
  40203c:	24420004 	addiu	v0,v0,4
  402040:	afc30048 	sw	v1,72(s8)
  402044:	8e4529e8 	lw	a1,10728(s2)
  402048:	3c130049 	lui	s3,0x49
  40204c:	10000014 	b	4020a0 <_nl_find_msg+0x914>
  402050:	afc2005c 	sw	v0,92(s8)
  402054:	26d60001 	addiu	s6,s6,1
  402058:	8e7729f4 	lw	s7,10740(s3)
  40205c:	00162a00 	sll	a1,s6,0x8
  402060:	02e02025 	move	a0,s7
  402064:	00b62823 	subu	a1,a1,s6
  402068:	00052900 	sll	a1,a1,0x4
  40206c:	ae4529e8 	sw	a1,10728(s2)
  402070:	04115849 	bal	418198 <__libc_realloc>
  402074:	afc50054 	sw	a1,84(s8)
  402078:	10400030 	beqz	v0,40213c <_nl_find_msg+0x9b0>
  40207c:	8fdc0018 	lw	gp,24(s8)
  402080:	8fc50054 	lw	a1,84(s8)
  402084:	ae6229f4 	sw	v0,10740(s3)
  402088:	24a5fffc 	addiu	a1,a1,-4
  40208c:	24440004 	addiu	a0,v0,4
  402090:	ae4529e8 	sw	a1,10728(s2)
  402094:	24420008 	addiu	v0,v0,8
  402098:	aea429ec 	sw	a0,10732(s5)
  40209c:	afc2005c 	sw	v0,92(s8)
  4020a0:	2ca20004 	sltiu	v0,a1,4
  4020a4:	14400016 	bnez	v0,402100 <_nl_find_msg+0x974>
  4020a8:	8fc2005c 	lw	v0,92(s8)
  4020ac:	24a5fffc 	addiu	a1,a1,-4
  4020b0:	8e840004 	lw	a0,4(s4)
  4020b4:	8fc60058 	lw	a2,88(s8)
  4020b8:	00452821 	addu	a1,v0,a1
  4020bc:	8fc70050 	lw	a3,80(s8)
  4020c0:	27c20060 	addiu	v0,s8,96
  4020c4:	8fd90048 	lw	t9,72(s8)
  4020c8:	afa50010 	sw	a1,16(sp)
  4020cc:	afa20014 	sw	v0,20(sp)
  4020d0:	8fc20040 	lw	v0,64(s8)
  4020d4:	8fc5004c 	lw	a1,76(s8)
  4020d8:	0320f809 	jalr	t9
  4020dc:	00c23021 	addu	a2,a2,v0
  4020e0:	2404fffb 	li	a0,-5
  4020e4:	00442024 	and	a0,v0,a0
  4020e8:	1080005c 	beqz	a0,40225c <_nl_find_msg+0xad0>
  4020ec:	8fdc0018 	lw	gp,24(s8)
  4020f0:	24040005 	li	a0,5
  4020f4:	1444008a 	bne	v0,a0,402320 <_nl_find_msg+0xb94>
  4020f8:	8fc30044 	lw	v1,68(s8)
  4020fc:	afd10058 	sw	s1,88(s8)
  402100:	16c0ffd4 	bnez	s6,402054 <_nl_find_msg+0x8c8>
  402104:	8f9980c8 	lw	t9,-32568(gp)
  402108:	8f9980cc 	lw	t9,-32564(gp)
  40210c:	24020ff0 	li	v0,4080
  402110:	24040ff0 	li	a0,4080
  402114:	041155aa 	bal	4177c0 <__libc_malloc>
  402118:	ae4229e8 	sw	v0,10728(s2)
  40211c:	1040000d 	beqz	v0,402154 <_nl_find_msg+0x9c8>
  402120:	8fdc0018 	lw	gp,24(s8)
  402124:	8e6429f4 	lw	a0,10740(s3)
  402128:	24050fec 	li	a1,4076
  40212c:	24160001 	li	s6,1
  402130:	ae6229f4 	sw	v0,10740(s3)
  402134:	1000ffd5 	b	40208c <_nl_find_msg+0x900>
  402138:	ac440000 	sw	a0,0(v0)
  40213c:	8ee20000 	lw	v0,0(s7)
  402140:	02e02025 	move	a0,s7
  402144:	8f998054 	lw	t9,-32684(gp)
  402148:	0411576a 	bal	417ef4 <__free>
  40214c:	ae6229f4 	sw	v0,10740(s3)
  402150:	8fdc0018 	lw	gp,24(s8)
  402154:	8fc30044 	lw	v1,68(s8)
  402158:	aea029ec 	sw	zero,10732(s5)
  40215c:	ae4029e8 	sw	zero,10728(s2)
  402160:	0000000f 	sync
  402164:	c06229f0 	ll	v0,10736(v1)
  402168:	24010000 	li	at,0
  40216c:	e06129f0 	sc	at,10736(v1)
  402170:	1020fffc 	beqz	at,402164 <_nl_find_msg+0x9d8>
  402174:	00000000 	nop
  402178:	28420002 	slti	v0,v0,2
  40217c:	1440fdf6 	bnez	v0,401958 <_nl_find_msg+0x1cc>
  402180:	2411ffff 	li	s1,-1
  402184:	8fc20044 	lw	v0,68(s8)
  402188:	24050081 	li	a1,129
  40218c:	24060001 	li	a2,1
  402190:	00003825 	move	a3,zero
  402194:	244429f0 	addiu	a0,v0,10736
  402198:	2402108e 	li	v0,4238
  40219c:	0000000c 	syscall
  4021a0:	1000fdee 	b	40195c <_nl_find_msg+0x1d0>
  4021a4:	8fc2002c 	lw	v0,44(s8)
  4021a8:	1000fdeb 	b	401958 <_nl_find_msg+0x1cc>
  4021ac:	2411ffff 	li	s1,-1
  4021b0:	3c020049 	lui	v0,0x49
  4021b4:	00402025 	move	a0,v0
  4021b8:	afc20044 	sw	v0,68(s8)
  4021bc:	c08329f0 	ll	v1,10736(a0)
  4021c0:	14600006 	bnez	v1,4021dc <_nl_find_msg+0xa50>
  4021c4:	24020000 	li	v0,0
  4021c8:	24010001 	li	at,1
  4021cc:	e08129f0 	sc	at,10736(a0)
  4021d0:	1020fffa 	beqz	at,4021bc <_nl_find_msg+0xa30>
  4021d4:	24020001 	li	v0,1
  4021d8:	0000000f 	sync
  4021dc:	10400079 	beqz	v0,4023c4 <_nl_find_msg+0xc38>
  4021e0:	8fc20044 	lw	v0,68(s8)
  4021e4:	8e820008 	lw	v0,8(s4)
  4021e8:	10400042 	beqz	v0,4022f4 <_nl_find_msg+0xb68>
  4021ec:	24050004 	li	a1,4
  4021f0:	8fc30044 	lw	v1,68(s8)
  4021f4:	0000000f 	sync
  4021f8:	c06229f0 	ll	v0,10736(v1)
  4021fc:	24010000 	li	at,0
  402200:	e06129f0 	sc	at,10736(v1)
  402204:	1020fffc 	beqz	at,4021f8 <_nl_find_msg+0xa6c>
  402208:	00000000 	nop
  40220c:	28420002 	slti	v0,v0,2
  402210:	10400003 	beqz	v0,402220 <_nl_find_msg+0xa94>
  402214:	24050081 	li	a1,129
  402218:	1000ff26 	b	401eb4 <_nl_find_msg+0x728>
  40221c:	8e820008 	lw	v0,8(s4)
  402220:	8fc20044 	lw	v0,68(s8)
  402224:	24060001 	li	a2,1
  402228:	00003825 	move	a3,zero
  40222c:	244429f0 	addiu	a0,v0,10736
  402230:	2402108e 	li	v0,4238
  402234:	0000000c 	syscall
  402238:	1000ff1e 	b	401eb4 <_nl_find_msg+0x728>
  40223c:	8e820008 	lw	v0,8(s4)
  402240:	8f9980cc 	lw	t9,-32564(gp)
  402244:	0411555e 	bal	4177c0 <__libc_malloc>
  402248:	00a02025 	move	a0,a1
  40224c:	8fdc0018 	lw	gp,24(s8)
  402250:	0040a025 	move	s4,v0
  402254:	1000fe88 	b	401c78 <_nl_find_msg+0x4ec>
  402258:	8fc90054 	lw	t1,84(s8)
  40225c:	8fc3005c 	lw	v1,92(s8)
  402260:	00108080 	sll	s0,s0,0x2
  402264:	8ea629ec 	lw	a2,10732(s5)
  402268:	8e4229e8 	lw	v0,10728(s2)
  40226c:	8e850008 	lw	a1,8(s4)
  402270:	00662023 	subu	a0,v1,a2
  402274:	00441023 	subu	v0,v0,a0
  402278:	00b02821 	addu	a1,a1,s0
  40227c:	30470003 	andi	a3,v0,0x3
  402280:	00671821 	addu	v1,v1,a3
  402284:	2407fffc 	li	a3,-4
  402288:	aea329ec 	sw	v1,10732(s5)
  40228c:	2484fffc 	addiu	a0,a0,-4
  402290:	8fc30044 	lw	v1,68(s8)
  402294:	00471024 	and	v0,v0,a3
  402298:	acc40000 	sw	a0,0(a2)
  40229c:	ae4229e8 	sw	v0,10728(s2)
  4022a0:	aca60000 	sw	a2,0(a1)
  4022a4:	0000000f 	sync
  4022a8:	c06229f0 	ll	v0,10736(v1)
  4022ac:	24010000 	li	at,0
  4022b0:	e06129f0 	sc	at,10736(v1)
  4022b4:	1020fffc 	beqz	at,4022a8 <_nl_find_msg+0xb1c>
  4022b8:	00000000 	nop
  4022bc:	28420002 	slti	v0,v0,2
  4022c0:	1040005c 	beqz	v0,402434 <_nl_find_msg+0xca8>
  4022c4:	24050081 	li	a1,129
  4022c8:	8e820008 	lw	v0,8(s4)
  4022cc:	00508021 	addu	s0,v0,s0
  4022d0:	1000feff 	b	401ed0 <_nl_find_msg+0x744>
  4022d4:	8e020000 	lw	v0,0(s0)
  4022d8:	1260ffb3 	beqz	s3,4021a8 <_nl_find_msg+0xa1c>
  4022dc:	26e40040 	addiu	a0,s7,64
  4022e0:	8f998374 	lw	t9,-31884(gp)
  4022e4:	0320f809 	jalr	t9
  4022e8:	2411ffff 	li	s1,-1
  4022ec:	1000fd9a 	b	401958 <_nl_find_msg+0x1cc>
  4022f0:	8fdc0018 	lw	gp,24(s8)
  4022f4:	8ee40020 	lw	a0,32(s7)
  4022f8:	8fc2004c 	lw	v0,76(s8)
  4022fc:	8f99805c 	lw	t9,-32676(gp)
  402300:	04115908 	bal	418724 <__calloc>
  402304:	00442021 	addu	a0,v0,a0
  402308:	8fdc0018 	lw	gp,24(s8)
  40230c:	1440ff40 	bnez	v0,402010 <_nl_find_msg+0x884>
  402310:	ae820008 	sw	v0,8(s4)
  402314:	2402ffff 	li	v0,-1
  402318:	1000ffb5 	b	4021f0 <_nl_find_msg+0xa64>
  40231c:	ae820008 	sw	v0,8(s4)
  402320:	0000000f 	sync
  402324:	c06229f0 	ll	v0,10736(v1)
  402328:	24010000 	li	at,0
  40232c:	e06129f0 	sc	at,10736(v1)
  402330:	1020fffc 	beqz	at,402324 <_nl_find_msg+0xb98>
  402334:	00000000 	nop
  402338:	28420002 	slti	v0,v0,2
  40233c:	1440fd86 	bnez	v0,401958 <_nl_find_msg+0x1cc>
  402340:	00008825 	move	s1,zero
  402344:	1000ff90 	b	402188 <_nl_find_msg+0x9fc>
  402348:	8fc20044 	lw	v0,68(s8)
  40234c:	3c190041 	lui	t9,0x41
  402350:	27392550 	addiu	t9,t9,9552
  402354:	0411407e 	bal	412550 <__lll_lock_wait_private>
  402358:	244429f0 	addiu	a0,v0,10736
  40235c:	1000ff2c 	b	402010 <_nl_find_msg+0x884>
  402360:	8fdc0018 	lw	gp,24(s8)
  402364:	10e00027 	beqz	a3,402404 <_nl_find_msg+0xc78>
  402368:	a0430000 	sb	v1,0(v0)
  40236c:	1000fe98 	b	401dd0 <_nl_find_msg+0x644>
  402370:	25620002 	addiu	v0,t3,2
  402374:	11200019 	beqz	t1,4023dc <_nl_find_msg+0xc50>
  402378:	a0430000 	sb	v1,0(v0)
  40237c:	1000feb5 	b	401e54 <_nl_find_msg+0x6c8>
  402380:	25420002 	addiu	v0,t2,2
  402384:	2403ffff 	li	v1,-1
  402388:	1043003d 	beq	v0,v1,402480 <_nl_find_msg+0xcf4>
  40238c:	00000000 	nop
  402390:	12600005 	beqz	s3,4023a8 <_nl_find_msg+0xc1c>
  402394:	00000000 	nop
  402398:	8f998374 	lw	t9,-31884(gp)
  40239c:	0320f809 	jalr	t9
  4023a0:	26e40040 	addiu	a0,s7,64
  4023a4:	8fdc0018 	lw	gp,24(s8)
  4023a8:	8f998054 	lw	t9,-32684(gp)
  4023ac:	041156d1 	bal	417ef4 <__free>
  4023b0:	02402025 	move	a0,s2
  4023b4:	00002025 	move	a0,zero
  4023b8:	8fdc0018 	lw	gp,24(s8)
  4023bc:	1000fd66 	b	401958 <_nl_find_msg+0x1cc>
  4023c0:	00808825 	move	s1,a0
  4023c4:	3c190041 	lui	t9,0x41
  4023c8:	27392550 	addiu	t9,t9,9552
  4023cc:	04114060 	bal	412550 <__lll_lock_wait_private>
  4023d0:	244429f0 	addiu	a0,v0,10736
  4023d4:	1000ff83 	b	4021e4 <_nl_find_msg+0xa58>
  4023d8:	8fdc0018 	lw	gp,24(s8)
  4023dc:	00401825 	move	v1,v0
  4023e0:	2406002f 	li	a2,47
  4023e4:	24620002 	addiu	v0,v1,2
  4023e8:	1000fe9a 	b	401e54 <_nl_find_msg+0x6c8>
  4023ec:	a0660001 	sb	a2,1(v1)
  4023f0:	27bdfff0 	addiu	sp,sp,-16
  4023f4:	2403002f 	li	v1,47
  4023f8:	27a20018 	addiu	v0,sp,24
  4023fc:	a0430000 	sb	v1,0(v0)
  402400:	00402025 	move	a0,v0
  402404:	3c030046 	lui	v1,0x46
  402408:	24666edc 	addiu	a2,v1,28380
  40240c:	8c656edc 	lw	a1,28380(v1)
  402410:	2403002f 	li	v1,47
  402414:	a0430001 	sb	v1,1(v0)
  402418:	a8450002 	swl	a1,2(v0)
  40241c:	b8450005 	swr	a1,5(v0)
  402420:	8cc30004 	lw	v1,4(a2)
  402424:	a8430006 	swl	v1,6(v0)
  402428:	b8430009 	swr	v1,9(v0)
  40242c:	1000fe68 	b	401dd0 <_nl_find_msg+0x644>
  402430:	2442000a 	addiu	v0,v0,10
  402434:	8fc20044 	lw	v0,68(s8)
  402438:	24060001 	li	a2,1
  40243c:	00003825 	move	a3,zero
  402440:	244429f0 	addiu	a0,v0,10736
  402444:	2402108e 	li	v0,4238
  402448:	0000000c 	syscall
  40244c:	1000ff9f 	b	4022cc <_nl_find_msg+0xb40>
  402450:	8e820008 	lw	v0,8(s4)
  402454:	27bdfff8 	addiu	sp,sp,-8
  402458:	2402002f 	li	v0,47
  40245c:	27a50018 	addiu	a1,sp,24
  402460:	a0a20000 	sb	v0,0(a1)
  402464:	1000ffde 	b	4023e0 <_nl_find_msg+0xc54>
  402468:	00a01825 	move	v1,a1
  40246c:	8f998058 	lw	t9,-32680(gp)
  402470:	041173d3 	bal	41f3c0 <__stack_chk_fail>
  402474:	00000000 	nop
  402478:	1000fd82 	b	401a84 <_nl_find_msg+0x2f8>
  40247c:	02023023 	subu	a2,s0,v0
  402480:	1000fe7c 	b	401e74 <_nl_find_msg+0x6e8>
  402484:	ae820004 	sw	v0,4(s4)

00402488 <__dcigettext>:
  402488:	3c1c004a 	lui	gp,0x4a
  40248c:	27bdff38 	addiu	sp,sp,-200
  402490:	279ca2b0 	addiu	gp,gp,-23888
  402494:	afbe00c0 	sw	s8,192(sp)
  402498:	03a0f025 	move	s8,sp
  40249c:	8f828038 	lw	v0,-32712(gp)
  4024a0:	afbf00c4 	sw	ra,196(sp)
  4024a4:	afb700bc 	sw	s7,188(sp)
  4024a8:	afc2005c 	sw	v0,92(s8)
  4024ac:	afb600b8 	sw	s6,184(sp)
  4024b0:	afb500b4 	sw	s5,180(sp)
  4024b4:	afb400b0 	sw	s4,176(sp)
  4024b8:	afb300ac 	sw	s3,172(sp)
  4024bc:	afb200a8 	sw	s2,168(sp)
  4024c0:	afb100a4 	sw	s1,164(sp)
  4024c4:	afb000a0 	sw	s0,160(sp)
  4024c8:	afbc0018 	sw	gp,24(sp)
  4024cc:	afc00074 	sw	zero,116(s8)
  4024d0:	afc60054 	sw	a2,84(s8)
  4024d4:	afc700d4 	sw	a3,212(s8)
  4024d8:	8c420000 	lw	v0,0(v0)
  4024dc:	afc2009c 	sw	v0,156(s8)
  4024e0:	10a0019a 	beqz	a1,402b4c <__dcigettext+0x6c4>
  4024e4:	8fc200dc 	lw	v0,220(s8)
  4024e8:	2c42000d 	sltiu	v0,v0,13
  4024ec:	104000f5 	beqz	v0,4028c4 <__dcigettext+0x43c>
  4024f0:	00a09825 	move	s3,a1
  4024f4:	8fc300dc 	lw	v1,220(s8)
  4024f8:	24020006 	li	v0,6
  4024fc:	106200f1 	beq	v1,v0,4028c4 <__dcigettext+0x43c>
  402500:	8f8283e4 	lw	v0,-31772(gp)
  402504:	00809025 	move	s2,a0
  402508:	7c03e83b 	rdhwr	v1,$29
  40250c:	8f908388 	lw	s0,-31864(gp)
  402510:	00402025 	move	a0,v0
  402514:	afc20044 	sw	v0,68(s8)
  402518:	00831021 	addu	v0,a0,v1
  40251c:	8c420000 	lw	v0,0(v0)
  402520:	1200000b 	beqz	s0,402550 <__dcigettext+0xc8>
  402524:	afc20048 	sw	v0,72(s8)
  402528:	3c040049 	lui	a0,0x49
  40252c:	8f998388 	lw	t9,-31864(gp)
  402530:	0320f809 	jalr	t9
  402534:	24842de0 	addiu	a0,a0,11744
  402538:	12000005 	beqz	s0,402550 <__dcigettext+0xc8>
  40253c:	8fdc0018 	lw	gp,24(s8)
  402540:	3c040049 	lui	a0,0x49
  402544:	8f998388 	lw	t9,-31864(gp)
  402548:	0320f809 	jalr	t9
  40254c:	248429c0 	addiu	a0,a0,10688
  402550:	1240017c 	beqz	s2,402b44 <__dcigettext+0x6bc>
  402554:	3c020049 	lui	v0,0x49
  402558:	3c110043 	lui	s1,0x43
  40255c:	8fc400dc 	lw	a0,220(s8)
  402560:	afc0008c 	sw	zero,140(s8)
  402564:	2631f290 	addiu	s1,s1,-3440
  402568:	afd30098 	sw	s3,152(s8)
  40256c:	afd2007c 	sw	s2,124(s8)
  402570:	0220c825 	move	t9,s1
  402574:	0320f809 	jalr	t9
  402578:	afc40080 	sw	a0,128(s8)
  40257c:	8fdc0018 	lw	gp,24(s8)
  402580:	afc2003c 	sw	v0,60(s8)
  402584:	12000006 	beqz	s0,4025a0 <__dcigettext+0x118>
  402588:	afc20084 	sw	v0,132(s8)
  40258c:	3c040049 	lui	a0,0x49
  402590:	8f998388 	lw	t9,-31864(gp)
  402594:	0320f809 	jalr	t9
  402598:	248429fc 	addiu	a0,a0,10748
  40259c:	8fdc0018 	lw	gp,24(s8)
  4025a0:	8f908374 	lw	s0,-31884(gp)
  4025a4:	3c020040 	lui	v0,0x40
  4025a8:	3c030049 	lui	v1,0x49
  4025ac:	3c190042 	lui	t9,0x42
  4025b0:	afc20034 	sw	v0,52(s8)
  4025b4:	2446162c 	addiu	a2,v0,5676
  4025b8:	afd00060 	sw	s0,96(s8)
  4025bc:	246529f8 	addiu	a1,v1,10744
  4025c0:	afc30038 	sw	v1,56(s8)
  4025c4:	2739e258 	addiu	t9,t9,-7592
  4025c8:	04116f23 	bal	41e258 <__tfind>
  4025cc:	27c4007c 	addiu	a0,s8,124
  4025d0:	8fdc0018 	lw	gp,24(s8)
  4025d4:	12000006 	beqz	s0,4025f0 <__dcigettext+0x168>
  4025d8:	afc20050 	sw	v0,80(s8)
  4025dc:	3c040049 	lui	a0,0x49
  4025e0:	8f998374 	lw	t9,-31884(gp)
  4025e4:	0320f809 	jalr	t9
  4025e8:	248429fc 	addiu	a0,a0,10748
  4025ec:	8fdc0018 	lw	gp,24(s8)
  4025f0:	8fc20050 	lw	v0,80(s8)
  4025f4:	10400006 	beqz	v0,402610 <__dcigettext+0x188>
  4025f8:	8f8380d0 	lw	v1,-32560(gp)
  4025fc:	8c420000 	lw	v0,0(v0)
  402600:	8c44000c 	lw	a0,12(v0)
  402604:	8c630000 	lw	v1,0(v1)
  402608:	10830152 	beq	a0,v1,402b54 <__dcigettext+0x6cc>
  40260c:	8fc300d4 	lw	v1,212(s8)
  402610:	8f8280d4 	lw	v0,-32556(gp)
  402614:	8c500000 	lw	s0,0(v0)
  402618:	120000c5 	beqz	s0,402930 <__dcigettext+0x4a8>
  40261c:	00000000 	nop
  402620:	3c140042 	lui	s4,0x42
  402624:	10000006 	b	402640 <__dcigettext+0x1b8>
  402628:	26949850 	addiu	s4,s4,-26544
  40262c:	044000bf 	bltz	v0,40292c <__dcigettext+0x4a4>
  402630:	00000000 	nop
  402634:	8e100000 	lw	s0,0(s0)
  402638:	120000bd 	beqz	s0,402930 <__dcigettext+0x4a8>
  40263c:	00000000 	nop
  402640:	2605000c 	addiu	a1,s0,12
  402644:	0280c825 	move	t9,s4
  402648:	04115c81 	bal	419850 <strcmp>
  40264c:	02402025 	move	a0,s2
  402650:	1440fff6 	bnez	v0,40262c <__dcigettext+0x1a4>
  402654:	00000000 	nop
  402658:	8e140004 	lw	s4,4(s0)
  40265c:	2402002f 	li	v0,47
  402660:	82830000 	lb	v1,0(s4)
  402664:	146200b5 	bne	v1,v0,40293c <__dcigettext+0x4b4>
  402668:	3c190042 	lui	t9,0x42
  40266c:	3c020047 	lui	v0,0x47
  402670:	8fc300dc 	lw	v1,220(s8)
  402674:	3c160047 	lui	s6,0x47
  402678:	244288f0 	addiu	v0,v0,-30480
  40267c:	26d68900 	addiu	s6,s6,-30464
  402680:	00621021 	addu	v0,v1,v0
  402684:	00602025 	move	a0,v1
  402688:	0220c825 	move	t9,s1
  40268c:	90450000 	lbu	a1,0(v0)
  402690:	0320f809 	jalr	t9
  402694:	02c5b021 	addu	s6,s6,a1
  402698:	0040a825 	move	s5,v0
  40269c:	90420000 	lbu	v0,0(v0)
  4026a0:	2442ffbd 	addiu	v0,v0,-67
  4026a4:	144000bd 	bnez	v0,40299c <__dcigettext+0x514>
  4026a8:	3c040046 	lui	a0,0x46
  4026ac:	92a20001 	lbu	v0,1(s5)
  4026b0:	144000bb 	bnez	v0,4029a0 <__dcigettext+0x518>
  4026b4:	3c190040 	lui	t9,0x40
  4026b8:	3c020042 	lui	v0,0x42
  4026bc:	02402025 	move	a0,s2
  4026c0:	24599d50 	addiu	t9,v0,-25264
  4026c4:	27c20078 	addiu	v0,s8,120
  4026c8:	afd9004c 	sw	t9,76(s8)
  4026cc:	04115da0 	bal	419d50 <strlen>
  4026d0:	afc20058 	sw	v0,88(s8)
  4026d4:	02c02025 	move	a0,s6
  4026d8:	8fd9004c 	lw	t9,76(s8)
  4026dc:	00408825 	move	s1,v0
  4026e0:	0320f809 	jalr	t9
  4026e4:	afc20030 	sw	v0,48(s8)
  4026e8:	02c02825 	move	a1,s6
  4026ec:	00511021 	addu	v0,v0,s1
  4026f0:	8fdc0018 	lw	gp,24(s8)
  4026f4:	2442000c 	addiu	v0,v0,12
  4026f8:	000210c2 	srl	v0,v0,0x3
  4026fc:	8f9980d8 	lw	t9,-32552(gp)
  402700:	000210c0 	sll	v0,v0,0x3
  402704:	03a2e823 	subu	sp,sp,v0
  402708:	27b60018 	addiu	s6,sp,24
  40270c:	041161b8 	bal	41adf0 <stpcpy>
  402710:	02c02025 	move	a0,s6
  402714:	3c030042 	lui	v1,0x42
  402718:	24440001 	addiu	a0,v0,1
  40271c:	a0400001 	sb	zero,1(v0)
  402720:	2463adb0 	addiu	v1,v1,-21072
  402724:	02203025 	move	a2,s1
  402728:	00603825 	move	a3,v1
  40272c:	afc3002c 	sw	v1,44(s8)
  402730:	2403002f 	li	v1,47
  402734:	00e0c825 	move	t9,a3
  402738:	a0430000 	sb	v1,0(v0)
  40273c:	0320f809 	jalr	t9
  402740:	02402825 	move	a1,s2
  402744:	3c030046 	lui	v1,0x46
  402748:	8fd9004c 	lw	t9,76(s8)
  40274c:	02a02025 	move	a0,s5
  402750:	8c635554 	lw	v1,21844(v1)
  402754:	a8430000 	swl	v1,0(v0)
  402758:	0320f809 	jalr	t9
  40275c:	b8430003 	swr	v1,3(v0)
  402760:	3c030046 	lui	v1,0x46
  402764:	24420008 	addiu	v0,v0,8
  402768:	8fdc0018 	lw	gp,24(s8)
  40276c:	afc3006c 	sw	v1,108(s8)
  402770:	000210c2 	srl	v0,v0,0x3
  402774:	000210c0 	sll	v0,v0,0x3
  402778:	03a2e823 	subu	sp,sp,v0
  40277c:	3c020042 	lui	v0,0x42
  402780:	27b10018 	addiu	s1,sp,24
  402784:	24429850 	addiu	v0,v0,-26544
  402788:	afc20068 	sw	v0,104(s8)
  40278c:	3c020040 	lui	v0,0x40
  402790:	24422d80 	addiu	v0,v0,11648
  402794:	afc20064 	sw	v0,100(s8)
  402798:	3c020042 	lui	v0,0x42
  40279c:	24429740 	addiu	v0,v0,-26816
  4027a0:	afc20040 	sw	v0,64(s8)
  4027a4:	82a20000 	lb	v0,0(s5)
  4027a8:	2403003a 	li	v1,58
  4027ac:	10430084 	beq	v0,v1,4029c0 <__dcigettext+0x538>
  4027b0:	00000000 	nop
  4027b4:	14400084 	bnez	v0,4029c8 <__dcigettext+0x540>
  4027b8:	2404003a 	li	a0,58
  4027bc:	24024300 	li	v0,17152
  4027c0:	a6220000 	sh	v0,0(s1)
  4027c4:	92220000 	lbu	v0,0(s1)
  4027c8:	2442ffbd 	addiu	v0,v0,-67
  4027cc:	14400004 	bnez	v0,4027e0 <__dcigettext+0x358>
  4027d0:	8fc2006c 	lw	v0,108(s8)
  4027d4:	92220001 	lbu	v0,1(s1)
  4027d8:	1040001d 	beqz	v0,402850 <__dcigettext+0x3c8>
  4027dc:	8fc2006c 	lw	v0,108(s8)
  4027e0:	02202025 	move	a0,s1
  4027e4:	8fd90068 	lw	t9,104(s8)
  4027e8:	0320f809 	jalr	t9
  4027ec:	24455558 	addiu	a1,v0,21848
  4027f0:	10400017 	beqz	v0,402850 <__dcigettext+0x3c8>
  4027f4:	8fdc0018 	lw	gp,24(s8)
  4027f8:	8fd90064 	lw	t9,100(s8)
  4027fc:	02003825 	move	a3,s0
  402800:	02c03025 	move	a2,s6
  402804:	02202825 	move	a1,s1
  402808:	0320f809 	jalr	t9
  40280c:	02802025 	move	a0,s4
  402810:	8fdc0018 	lw	gp,24(s8)
  402814:	1040ffe3 	beqz	v0,4027a4 <__dcigettext+0x31c>
  402818:	0040b825 	move	s7,v0
  40281c:	8fc20058 	lw	v0,88(s8)
  402820:	24070001 	li	a3,1
  402824:	02603025 	move	a2,s3
  402828:	02002825 	move	a1,s0
  40282c:	afa20010 	sw	v0,16(sp)
  402830:	0c1005e3 	jal	40178c <_nl_find_msg>
  402834:	02e02025 	move	a0,s7
  402838:	10400078 	beqz	v0,402a1c <__dcigettext+0x594>
  40283c:	8fdc0018 	lw	gp,24(s8)
  402840:	00404825 	move	t1,v0
  402844:	2402ffff 	li	v0,-1
  402848:	15220092 	bne	t1,v0,402a94 <__dcigettext+0x60c>
  40284c:	8f998054 	lw	t9,-32684(gp)
  402850:	8f998054 	lw	t9,-32684(gp)
  402854:	041155a7 	bal	417ef4 <__free>
  402858:	8fc40074 	lw	a0,116(s8)
  40285c:	8fc20060 	lw	v0,96(s8)
  402860:	10400007 	beqz	v0,402880 <__dcigettext+0x3f8>
  402864:	8fdc0018 	lw	gp,24(s8)
  402868:	3c040049 	lui	a0,0x49
  40286c:	8f998374 	lw	t9,-31884(gp)
  402870:	0320f809 	jalr	t9
  402874:	248429c0 	addiu	a0,a0,10688
  402878:	8fdc0018 	lw	gp,24(s8)
  40287c:	8fc20060 	lw	v0,96(s8)
  402880:	10400005 	beqz	v0,402898 <__dcigettext+0x410>
  402884:	8f998374 	lw	t9,-31884(gp)
  402888:	3c040049 	lui	a0,0x49
  40288c:	0320f809 	jalr	t9
  402890:	24842de0 	addiu	a0,a0,11744
  402894:	8fdc0018 	lw	gp,24(s8)
  402898:	7c03e83b 	rdhwr	v1,$29
  40289c:	00601025 	move	v0,v1
  4028a0:	8fc30044 	lw	v1,68(s8)
  4028a4:	00621021 	addu	v0,v1,v0
  4028a8:	8fc30048 	lw	v1,72(s8)
  4028ac:	ac430000 	sw	v1,0(v0)
  4028b0:	8fc200d4 	lw	v0,212(s8)
  4028b4:	14400007 	bnez	v0,4028d4 <__dcigettext+0x44c>
  4028b8:	8fc300d8 	lw	v1,216(s8)
  4028bc:	10000009 	b	4028e4 <__dcigettext+0x45c>
  4028c0:	02604825 	move	t1,s3
  4028c4:	8fc200d4 	lw	v0,212(s8)
  4028c8:	10400006 	beqz	v0,4028e4 <__dcigettext+0x45c>
  4028cc:	02604825 	move	t1,s3
  4028d0:	8fc300d8 	lw	v1,216(s8)
  4028d4:	24020001 	li	v0,1
  4028d8:	10620002 	beq	v1,v0,4028e4 <__dcigettext+0x45c>
  4028dc:	02604825 	move	t1,s3
  4028e0:	8fc90054 	lw	t1,84(s8)
  4028e4:	8fc2005c 	lw	v0,92(s8)
  4028e8:	8fc3009c 	lw	v1,156(s8)
  4028ec:	8c420000 	lw	v0,0(v0)
  4028f0:	1462011f 	bne	v1,v0,402d70 <__dcigettext+0x8e8>
  4028f4:	01201025 	move	v0,t1
  4028f8:	03c0e825 	move	sp,s8
  4028fc:	8fbf00c4 	lw	ra,196(sp)
  402900:	8fbe00c0 	lw	s8,192(sp)
  402904:	8fb700bc 	lw	s7,188(sp)
  402908:	8fb600b8 	lw	s6,184(sp)
  40290c:	8fb500b4 	lw	s5,180(sp)
  402910:	8fb400b0 	lw	s4,176(sp)
  402914:	8fb300ac 	lw	s3,172(sp)
  402918:	8fb200a8 	lw	s2,168(sp)
  40291c:	8fb100a4 	lw	s1,164(sp)
  402920:	8fb000a0 	lw	s0,160(sp)
  402924:	03e00008 	jr	ra
  402928:	27bd00c8 	addiu	sp,sp,200
  40292c:	00008025 	move	s0,zero
  402930:	3c140046 	lui	s4,0x46
  402934:	1000ff4d 	b	40266c <__dcigettext+0x1e4>
  402938:	26945560 	addiu	s4,s4,21856
  40293c:	00002825 	move	a1,zero
  402940:	2739cd00 	addiu	t9,t9,-13056
  402944:	041168ee 	bal	41cd00 <__getcwd>
  402948:	00002025 	move	a0,zero
  40294c:	8fdc0018 	lw	gp,24(s8)
  402950:	1040ffbf 	beqz	v0,402850 <__dcigettext+0x3c8>
  402954:	0040b025 	move	s6,v0
  402958:	3c050046 	lui	a1,0x46
  40295c:	3c190040 	lui	t9,0x40
  402960:	24a55540 	addiu	a1,a1,21824
  402964:	27c40074 	addiu	a0,s8,116
  402968:	27397ff0 	addiu	t9,t9,32752
  40296c:	02803825 	move	a3,s4
  402970:	0411159f 	bal	407ff0 <___asprintf>
  402974:	00403025 	move	a2,v0
  402978:	02c02025 	move	a0,s6
  40297c:	8fdc0018 	lw	gp,24(s8)
  402980:	8f998054 	lw	t9,-32684(gp)
  402984:	0411555b 	bal	417ef4 <__free>
  402988:	0040a025 	move	s4,v0
  40298c:	0680ffb0 	bltz	s4,402850 <__dcigettext+0x3c8>
  402990:	8fdc0018 	lw	gp,24(s8)
  402994:	1000ff35 	b	40266c <__dcigettext+0x1e4>
  402998:	8fd40074 	lw	s4,116(s8)
  40299c:	3c190040 	lui	t9,0x40
  4029a0:	27397020 	addiu	t9,t9,28704
  4029a4:	0411119e 	bal	407020 <getenv>
  4029a8:	24845548 	addiu	a0,a0,21832
  4029ac:	1040ff42 	beqz	v0,4026b8 <__dcigettext+0x230>
  4029b0:	00000000 	nop
  4029b4:	80430000 	lb	v1,0(v0)
  4029b8:	1000ff3f 	b	4026b8 <__dcigettext+0x230>
  4029bc:	0043a80b 	movn	s5,v0,v1
  4029c0:	1000ff78 	b	4027a4 <__dcigettext+0x31c>
  4029c4:	26b50001 	addiu	s5,s5,1
  4029c8:	02201825 	move	v1,s1
  4029cc:	26b50001 	addiu	s5,s5,1
  4029d0:	a0620000 	sb	v0,0(v1)
  4029d4:	82a20000 	lb	v0,0(s5)
  4029d8:	10400004 	beqz	v0,4029ec <__dcigettext+0x564>
  4029dc:	24630001 	addiu	v1,v1,1
  4029e0:	1444fffb 	bne	v0,a0,4029d0 <__dcigettext+0x548>
  4029e4:	26b50001 	addiu	s5,s5,1
  4029e8:	26b5ffff 	addiu	s5,s5,-1
  4029ec:	8f828088 	lw	v0,-32632(gp)
  4029f0:	a0600000 	sb	zero,0(v1)
  4029f4:	8c420000 	lw	v0,0(v0)
  4029f8:	1040ff72 	beqz	v0,4027c4 <__dcigettext+0x33c>
  4029fc:	8fd90040 	lw	t9,64(s8)
  402a00:	2405002f 	li	a1,47
  402a04:	0320f809 	jalr	t9
  402a08:	02202025 	move	a0,s1
  402a0c:	1440ff65 	bnez	v0,4027a4 <__dcigettext+0x31c>
  402a10:	8fdc0018 	lw	gp,24(s8)
  402a14:	1000ff6c 	b	4027c8 <__dcigettext+0x340>
  402a18:	92220000 	lbu	v0,0(s1)
  402a1c:	8ee40010 	lw	a0,16(s7)
  402a20:	1080ff60 	beqz	a0,4027a4 <__dcigettext+0x31c>
  402a24:	26e80014 	addiu	t0,s7,20
  402a28:	afd50024 	sw	s5,36(s8)
  402a2c:	afd10020 	sw	s1,32(s8)
  402a30:	0040a825 	move	s5,v0
  402a34:	afd70028 	sw	s7,40(s8)
  402a38:	0100b825 	move	s7,t0
  402a3c:	10000005 	b	402a54 <__dcigettext+0x5cc>
  402a40:	8fd10058 	lw	s1,88(s8)
  402a44:	8ee40000 	lw	a0,0(s7)
  402a48:	26b50001 	addiu	s5,s5,1
  402a4c:	10800065 	beqz	a0,402be4 <__dcigettext+0x75c>
  402a50:	26f70004 	addiu	s7,s7,4
  402a54:	24070001 	li	a3,1
  402a58:	afb10010 	sw	s1,16(sp)
  402a5c:	02603025 	move	a2,s3
  402a60:	0c1005e3 	jal	40178c <_nl_find_msg>
  402a64:	02002825 	move	a1,s0
  402a68:	2403ffff 	li	v1,-1
  402a6c:	1043ff78 	beq	v0,v1,402850 <__dcigettext+0x3c8>
  402a70:	8fdc0018 	lw	gp,24(s8)
  402a74:	1040fff3 	beqz	v0,402a44 <__dcigettext+0x5bc>
  402a78:	00404825 	move	t1,v0
  402a7c:	8fd70028 	lw	s7,40(s8)
  402a80:	26a20004 	addiu	v0,s5,4
  402a84:	00021080 	sll	v0,v0,0x2
  402a88:	02e25021 	addu	t2,s7,v0
  402a8c:	8d570000 	lw	s7,0(t2)
  402a90:	8f998054 	lw	t9,-32684(gp)
  402a94:	8fc40074 	lw	a0,116(s8)
  402a98:	04115516 	bal	417ef4 <__free>
  402a9c:	afc9006c 	sw	t1,108(s8)
  402aa0:	8fc20050 	lw	v0,80(s8)
  402aa4:	8fdc0018 	lw	gp,24(s8)
  402aa8:	10400058 	beqz	v0,402c0c <__dcigettext+0x784>
  402aac:	8fc9006c 	lw	t1,108(s8)
  402ab0:	8fc20050 	lw	v0,80(s8)
  402ab4:	8f8380d0 	lw	v1,-32560(gp)
  402ab8:	8c420000 	lw	v0,0(v0)
  402abc:	8c630000 	lw	v1,0(v1)
  402ac0:	ac43000c 	sw	v1,12(v0)
  402ac4:	ac570010 	sw	s7,16(v0)
  402ac8:	ac490014 	sw	t1,20(v0)
  402acc:	8fc30078 	lw	v1,120(s8)
  402ad0:	ac430018 	sw	v1,24(v0)
  402ad4:	7c03e83b 	rdhwr	v1,$29
  402ad8:	00601025 	move	v0,v1
  402adc:	8fc30044 	lw	v1,68(s8)
  402ae0:	00621021 	addu	v0,v1,v0
  402ae4:	8fc30048 	lw	v1,72(s8)
  402ae8:	ac430000 	sw	v1,0(v0)
  402aec:	8fc200d4 	lw	v0,212(s8)
  402af0:	1440003f 	bnez	v0,402bf0 <__dcigettext+0x768>
  402af4:	8fc70078 	lw	a3,120(s8)
  402af8:	8fc20060 	lw	v0,96(s8)
  402afc:	10400008 	beqz	v0,402b20 <__dcigettext+0x698>
  402b00:	8f998374 	lw	t9,-31884(gp)
  402b04:	3c040049 	lui	a0,0x49
  402b08:	afc9006c 	sw	t1,108(s8)
  402b0c:	0320f809 	jalr	t9
  402b10:	248429c0 	addiu	a0,a0,10688
  402b14:	8fdc0018 	lw	gp,24(s8)
  402b18:	8fc9006c 	lw	t1,108(s8)
  402b1c:	8fc20060 	lw	v0,96(s8)
  402b20:	1040ff70 	beqz	v0,4028e4 <__dcigettext+0x45c>
  402b24:	3c040049 	lui	a0,0x49
  402b28:	8f998374 	lw	t9,-31884(gp)
  402b2c:	afc9006c 	sw	t1,108(s8)
  402b30:	0320f809 	jalr	t9
  402b34:	24842de0 	addiu	a0,a0,11744
  402b38:	8fdc0018 	lw	gp,24(s8)
  402b3c:	1000ff69 	b	4028e4 <__dcigettext+0x45c>
  402b40:	8fc9006c 	lw	t1,108(s8)
  402b44:	1000fe84 	b	402558 <__dcigettext+0xd0>
  402b48:	8c521020 	lw	s2,4128(v0)
  402b4c:	1000ff65 	b	4028e4 <__dcigettext+0x45c>
  402b50:	00004825 	move	t1,zero
  402b54:	1460001a 	bnez	v1,402bc0 <__dcigettext+0x738>
  402b58:	8c490014 	lw	t1,20(v0)
  402b5c:	8fc20060 	lw	v0,96(s8)
  402b60:	10400008 	beqz	v0,402b84 <__dcigettext+0x6fc>
  402b64:	8f998374 	lw	t9,-31884(gp)
  402b68:	3c040049 	lui	a0,0x49
  402b6c:	afc9006c 	sw	t1,108(s8)
  402b70:	0320f809 	jalr	t9
  402b74:	248429c0 	addiu	a0,a0,10688
  402b78:	8fdc0018 	lw	gp,24(s8)
  402b7c:	8fc9006c 	lw	t1,108(s8)
  402b80:	8fc20060 	lw	v0,96(s8)
  402b84:	10400007 	beqz	v0,402ba4 <__dcigettext+0x71c>
  402b88:	8f998374 	lw	t9,-31884(gp)
  402b8c:	3c040049 	lui	a0,0x49
  402b90:	afc9006c 	sw	t1,108(s8)
  402b94:	0320f809 	jalr	t9
  402b98:	24842de0 	addiu	a0,a0,11744
  402b9c:	8fdc0018 	lw	gp,24(s8)
  402ba0:	8fc9006c 	lw	t1,108(s8)
  402ba4:	7c03e83b 	rdhwr	v1,$29
  402ba8:	00601025 	move	v0,v1
  402bac:	8fc30044 	lw	v1,68(s8)
  402bb0:	00621021 	addu	v0,v1,v0
  402bb4:	8fc30048 	lw	v1,72(s8)
  402bb8:	1000ff4a 	b	4028e4 <__dcigettext+0x45c>
  402bbc:	ac430000 	sw	v1,0(v0)
  402bc0:	8c430010 	lw	v1,16(v0)
  402bc4:	01203025 	move	a2,t1
  402bc8:	8c470018 	lw	a3,24(v0)
  402bcc:	8fc500d8 	lw	a1,216(s8)
  402bd0:	0c1005b8 	jal	4016e0 <plural_lookup.isra.0>
  402bd4:	8c640008 	lw	a0,8(v1)
  402bd8:	8fdc0018 	lw	gp,24(s8)
  402bdc:	1000ffdf 	b	402b5c <__dcigettext+0x6d4>
  402be0:	00404825 	move	t1,v0
  402be4:	8fd50024 	lw	s5,36(s8)
  402be8:	1000feee 	b	4027a4 <__dcigettext+0x31c>
  402bec:	8fd10020 	lw	s1,32(s8)
  402bf0:	01203025 	move	a2,t1
  402bf4:	8ee40008 	lw	a0,8(s7)
  402bf8:	0c1005b8 	jal	4016e0 <plural_lookup.isra.0>
  402bfc:	8fc500d8 	lw	a1,216(s8)
  402c00:	8fdc0018 	lw	gp,24(s8)
  402c04:	1000ffbc 	b	402af8 <__dcigettext+0x670>
  402c08:	00404825 	move	t1,v0
  402c0c:	8fd9004c 	lw	t9,76(s8)
  402c10:	0320f809 	jalr	t9
  402c14:	02602025 	move	a0,s3
  402c18:	8fd5003c 	lw	s5,60(s8)
  402c1c:	24500001 	addiu	s0,v0,1
  402c20:	8fd9004c 	lw	t9,76(s8)
  402c24:	0320f809 	jalr	t9
  402c28:	02a02025 	move	a0,s5
  402c2c:	8fd40030 	lw	s4,48(s8)
  402c30:	8fdc0018 	lw	gp,24(s8)
  402c34:	2683001e 	addiu	v1,s4,30
  402c38:	00621821 	addu	v1,v1,v0
  402c3c:	8f9980cc 	lw	t9,-32564(gp)
  402c40:	041152df 	bal	4177c0 <__libc_malloc>
  402c44:	00702021 	addu	a0,v1,s0
  402c48:	8fdc0018 	lw	gp,24(s8)
  402c4c:	00408825 	move	s1,v0
  402c50:	1040ffa0 	beqz	v0,402ad4 <__dcigettext+0x64c>
  402c54:	8fc9006c 	lw	t1,108(s8)
  402c58:	8fd9002c 	lw	t9,44(s8)
  402c5c:	2444001c 	addiu	a0,v0,28
  402c60:	02003025 	move	a2,s0
  402c64:	0320f809 	jalr	t9
  402c68:	02602825 	move	a1,s3
  402c6c:	26900001 	addiu	s0,s4,1
  402c70:	8fdc0018 	lw	gp,24(s8)
  402c74:	02402825 	move	a1,s2
  402c78:	00402025 	move	a0,v0
  402c7c:	02003025 	move	a2,s0
  402c80:	8f99809c 	lw	t9,-32612(gp)
  402c84:	0411608e 	bal	41aec0 <memcpy>
  402c88:	00409825 	move	s3,v0
  402c8c:	3c190042 	lui	t9,0x42
  402c90:	02702021 	addu	a0,s3,s0
  402c94:	27399a90 	addiu	t9,t9,-25968
  402c98:	04115b7d 	bal	419a90 <strcpy>
  402c9c:	02a02825 	move	a1,s5
  402ca0:	8fc300dc 	lw	v1,220(s8)
  402ca4:	00402025 	move	a0,v0
  402ca8:	8fdc0018 	lw	gp,24(s8)
  402cac:	8fc9006c 	lw	t1,108(s8)
  402cb0:	ae230004 	sw	v1,4(s1)
  402cb4:	8fc30078 	lw	v1,120(s8)
  402cb8:	8f828394 	lw	v0,-31852(gp)
  402cbc:	ae330000 	sw	s3,0(s1)
  402cc0:	ae230018 	sw	v1,24(s1)
  402cc4:	8f8380d0 	lw	v1,-32560(gp)
  402cc8:	ae240008 	sw	a0,8(s1)
  402ccc:	ae370010 	sw	s7,16(s1)
  402cd0:	ae290014 	sw	t1,20(s1)
  402cd4:	8c630000 	lw	v1,0(v1)
  402cd8:	10400006 	beqz	v0,402cf4 <__dcigettext+0x86c>
  402cdc:	ae23000c 	sw	v1,12(s1)
  402ce0:	3c040049 	lui	a0,0x49
  402ce4:	8f998394 	lw	t9,-31852(gp)
  402ce8:	0320f809 	jalr	t9
  402cec:	248429fc 	addiu	a0,a0,10748
  402cf0:	8fc9006c 	lw	t1,108(s8)
  402cf4:	8fc20034 	lw	v0,52(s8)
  402cf8:	3c190042 	lui	t9,0x42
  402cfc:	afc9006c 	sw	t1,108(s8)
  402d00:	02202025 	move	a0,s1
  402d04:	2739e0b0 	addiu	t9,t9,-8016
  402d08:	2446162c 	addiu	a2,v0,5676
  402d0c:	8fc20038 	lw	v0,56(s8)
  402d10:	04116ce7 	bal	41e0b0 <__tsearch>
  402d14:	244529f8 	addiu	a1,v0,10744
  402d18:	00408025 	move	s0,v0
  402d1c:	8fc20060 	lw	v0,96(s8)
  402d20:	8fdc0018 	lw	gp,24(s8)
  402d24:	10400007 	beqz	v0,402d44 <__dcigettext+0x8bc>
  402d28:	8fc9006c 	lw	t1,108(s8)
  402d2c:	3c040049 	lui	a0,0x49
  402d30:	8f998374 	lw	t9,-31884(gp)
  402d34:	0320f809 	jalr	t9
  402d38:	248429fc 	addiu	a0,a0,10748
  402d3c:	8fdc0018 	lw	gp,24(s8)
  402d40:	8fc9006c 	lw	t1,108(s8)
  402d44:	12000004 	beqz	s0,402d58 <__dcigettext+0x8d0>
  402d48:	8f998054 	lw	t9,-32684(gp)
  402d4c:	8e020000 	lw	v0,0(s0)
  402d50:	1051ff60 	beq	v0,s1,402ad4 <__dcigettext+0x64c>
  402d54:	00000000 	nop
  402d58:	02202025 	move	a0,s1
  402d5c:	04115465 	bal	417ef4 <__free>
  402d60:	afc9006c 	sw	t1,108(s8)
  402d64:	8fdc0018 	lw	gp,24(s8)
  402d68:	1000ff5a 	b	402ad4 <__dcigettext+0x64c>
  402d6c:	8fc9006c 	lw	t1,108(s8)
  402d70:	8f998058 	lw	t9,-32680(gp)
  402d74:	04117192 	bal	41f3c0 <__stack_chk_fail>
  402d78:	00000000 	nop
  402d7c:	00000000 	nop

00402d80 <_nl_find_domain>:
  402d80:	3c1c004a 	lui	gp,0x4a
  402d84:	27bdff80 	addiu	sp,sp,-128
  402d88:	279ca2b0 	addiu	gp,gp,-23888
  402d8c:	afb5006c 	sw	s5,108(sp)
  402d90:	8f958038 	lw	s5,-32712(gp)
  402d94:	8f838388 	lw	v1,-31864(gp)
  402d98:	afb40068 	sw	s4,104(sp)
  402d9c:	00e0a025 	move	s4,a3
  402da0:	afb30064 	sw	s3,100(sp)
  402da4:	00c09825 	move	s3,a2
  402da8:	afb1005c 	sw	s1,92(sp)
  402dac:	00a08825 	move	s1,a1
  402db0:	afb00058 	sw	s0,88(sp)
  402db4:	00808025 	move	s0,a0
  402db8:	afbf007c 	sw	ra,124(sp)
  402dbc:	afbe0078 	sw	s8,120(sp)
  402dc0:	afb70074 	sw	s7,116(sp)
  402dc4:	afb60070 	sw	s6,112(sp)
  402dc8:	afb20060 	sw	s2,96(sp)
  402dcc:	afbc0030 	sw	gp,48(sp)
  402dd0:	8ea80000 	lw	t0,0(s5)
  402dd4:	afa80054 	sw	t0,84(sp)
  402dd8:	10600005 	beqz	v1,402df0 <_nl_find_domain+0x70>
  402ddc:	3c040049 	lui	a0,0x49
  402de0:	8f998388 	lw	t9,-31864(gp)
  402de4:	0320f809 	jalr	t9
  402de8:	24842a20 	addiu	a0,a0,10784
  402dec:	8fbc0030 	lw	gp,48(sp)
  402df0:	3c120042 	lui	s2,0x42
  402df4:	8f968374 	lw	s6,-31884(gp)
  402df8:	02002025 	move	a0,s0
  402dfc:	26529d50 	addiu	s2,s2,-25264
  402e00:	0240c825 	move	t9,s2
  402e04:	04115bd2 	bal	419d50 <strlen>
  402e08:	3c170049 	lui	s7,0x49
  402e0c:	00003825 	move	a3,zero
  402e10:	8fbc0030 	lw	gp,48(sp)
  402e14:	24460001 	addiu	a2,v0,1
  402e18:	26e42a40 	addiu	a0,s7,10816
  402e1c:	afa00028 	sw	zero,40(sp)
  402e20:	afb30024 	sw	s3,36(sp)
  402e24:	02002825 	move	a1,s0
  402e28:	afa00020 	sw	zero,32(sp)
  402e2c:	afa0001c 	sw	zero,28(sp)
  402e30:	afa00018 	sw	zero,24(sp)
  402e34:	afa00014 	sw	zero,20(sp)
  402e38:	8f9980dc 	lw	t9,-32548(gp)
  402e3c:	04110898 	bal	4050a0 <_nl_make_l10nflist>
  402e40:	afb10010 	sw	s1,16(sp)
  402e44:	8fbc0030 	lw	gp,48(sp)
  402e48:	12c00006 	beqz	s6,402e64 <_nl_find_domain+0xe4>
  402e4c:	0040f025 	move	s8,v0
  402e50:	3c040049 	lui	a0,0x49
  402e54:	8f998374 	lw	t9,-31884(gp)
  402e58:	0320f809 	jalr	t9
  402e5c:	24842a20 	addiu	a0,a0,10784
  402e60:	8fbc0030 	lw	gp,48(sp)
  402e64:	13c00032 	beqz	s8,402f30 <_nl_find_domain+0x1b0>
  402e68:	8f9980e0 	lw	t9,-32544(gp)
  402e6c:	8fc20004 	lw	v0,4(s8)
  402e70:	18400029 	blez	v0,402f18 <_nl_find_domain+0x198>
  402e74:	3c190040 	lui	t9,0x40
  402e78:	8fc20008 	lw	v0,8(s8)
  402e7c:	10400011 	beqz	v0,402ec4 <_nl_find_domain+0x144>
  402e80:	00000000 	nop
  402e84:	8fa40054 	lw	a0,84(sp)
  402e88:	8ea20000 	lw	v0,0(s5)
  402e8c:	148200a2 	bne	a0,v0,403118 <_nl_find_domain+0x398>
  402e90:	8fbf007c 	lw	ra,124(sp)
  402e94:	03c01025 	move	v0,s8
  402e98:	8fbe0078 	lw	s8,120(sp)
  402e9c:	8fb70074 	lw	s7,116(sp)
  402ea0:	8fb60070 	lw	s6,112(sp)
  402ea4:	8fb5006c 	lw	s5,108(sp)
  402ea8:	8fb40068 	lw	s4,104(sp)
  402eac:	8fb30064 	lw	s3,100(sp)
  402eb0:	8fb20060 	lw	s2,96(sp)
  402eb4:	8fb1005c 	lw	s1,92(sp)
  402eb8:	8fb00058 	lw	s0,88(sp)
  402ebc:	03e00008 	jr	ra
  402ec0:	27bd0080 	addiu	sp,sp,128
  402ec4:	8fc40010 	lw	a0,16(s8)
  402ec8:	1080ffee 	beqz	a0,402e84 <_nl_find_domain+0x104>
  402ecc:	00000000 	nop
  402ed0:	3c110040 	lui	s1,0x40
  402ed4:	27d00010 	addiu	s0,s8,16
  402ed8:	10000008 	b	402efc <_nl_find_domain+0x17c>
  402edc:	26313130 	addiu	s1,s1,12592
  402ee0:	8e020000 	lw	v0,0(s0)
  402ee4:	8c420008 	lw	v0,8(v0)
  402ee8:	1440ffe6 	bnez	v0,402e84 <_nl_find_domain+0x104>
  402eec:	00000000 	nop
  402ef0:	8e040004 	lw	a0,4(s0)
  402ef4:	1080ffe3 	beqz	a0,402e84 <_nl_find_domain+0x104>
  402ef8:	26100004 	addiu	s0,s0,4
  402efc:	8c820004 	lw	v0,4(a0)
  402f00:	1c40fff7 	bgtz	v0,402ee0 <_nl_find_domain+0x160>
  402f04:	0220c825 	move	t9,s1
  402f08:	04110089 	bal	403130 <_nl_load_domain>
  402f0c:	02802825 	move	a1,s4
  402f10:	1000fff3 	b	402ee0 <_nl_find_domain+0x160>
  402f14:	8fbc0030 	lw	gp,48(sp)
  402f18:	02802825 	move	a1,s4
  402f1c:	27393130 	addiu	t9,t9,12592
  402f20:	04110083 	bal	403130 <_nl_load_domain>
  402f24:	03c02025 	move	a0,s8
  402f28:	1000ffd3 	b	402e78 <_nl_find_domain+0xf8>
  402f2c:	8fbc0030 	lw	gp,48(sp)
  402f30:	041107b1 	bal	404df8 <_nl_expand_alias>
  402f34:	02202025 	move	a0,s1
  402f38:	8fbc0030 	lw	gp,48(sp)
  402f3c:	10400013 	beqz	v0,402f8c <_nl_find_domain+0x20c>
  402f40:	afa20038 	sw	v0,56(sp)
  402f44:	0240c825 	move	t9,s2
  402f48:	04115b81 	bal	419d50 <strlen>
  402f4c:	00402025 	move	a0,v0
  402f50:	8fbc0030 	lw	gp,48(sp)
  402f54:	24460001 	addiu	a2,v0,1
  402f58:	00c02025 	move	a0,a2
  402f5c:	8f9980cc 	lw	t9,-32564(gp)
  402f60:	04115217 	bal	4177c0 <__libc_malloc>
  402f64:	afa6003c 	sw	a2,60(sp)
  402f68:	8fbc0030 	lw	gp,48(sp)
  402f6c:	1040ffc5 	beqz	v0,402e84 <_nl_find_domain+0x104>
  402f70:	00408825 	move	s1,v0
  402f74:	8f99809c 	lw	t9,-32612(gp)
  402f78:	00402025 	move	a0,v0
  402f7c:	8fa6003c 	lw	a2,60(sp)
  402f80:	04115fcf 	bal	41aec0 <memcpy>
  402f84:	8fa50038 	lw	a1,56(sp)
  402f88:	8fbc0030 	lw	gp,48(sp)
  402f8c:	27a20050 	addiu	v0,sp,80
  402f90:	8f9980e4 	lw	t9,-32540(gp)
  402f94:	27a70048 	addiu	a3,sp,72
  402f98:	afa20014 	sw	v0,20(sp)
  402f9c:	27a2004c 	addiu	v0,sp,76
  402fa0:	27a60044 	addiu	a2,sp,68
  402fa4:	27a50040 	addiu	a1,sp,64
  402fa8:	afa20010 	sw	v0,16(sp)
  402fac:	04110a4c 	bal	4058e0 <_nl_explode_name>
  402fb0:	02202025 	move	a0,s1
  402fb4:	2404ffff 	li	a0,-1
  402fb8:	8fbc0030 	lw	gp,48(sp)
  402fbc:	1044ffb1 	beq	v0,a0,402e84 <_nl_find_domain+0x104>
  402fc0:	afa2003c 	sw	v0,60(sp)
  402fc4:	8f828394 	lw	v0,-31852(gp)
  402fc8:	10400004 	beqz	v0,402fdc <_nl_find_domain+0x25c>
  402fcc:	3c040049 	lui	a0,0x49
  402fd0:	8f998394 	lw	t9,-31852(gp)
  402fd4:	0320f809 	jalr	t9
  402fd8:	24842a20 	addiu	a0,a0,10784
  402fdc:	0240c825 	move	t9,s2
  402fe0:	04115b5b 	bal	419d50 <strlen>
  402fe4:	02002025 	move	a0,s0
  402fe8:	26e42a40 	addiu	a0,s7,10816
  402fec:	24460001 	addiu	a2,v0,1
  402ff0:	8fbc0030 	lw	gp,48(sp)
  402ff4:	24020001 	li	v0,1
  402ff8:	8fa7003c 	lw	a3,60(sp)
  402ffc:	02002825 	move	a1,s0
  403000:	afb30024 	sw	s3,36(sp)
  403004:	afa20028 	sw	v0,40(sp)
  403008:	8fa20044 	lw	v0,68(sp)
  40300c:	8f9980dc 	lw	t9,-32548(gp)
  403010:	afa20020 	sw	v0,32(sp)
  403014:	8fa20050 	lw	v0,80(sp)
  403018:	afa2001c 	sw	v0,28(sp)
  40301c:	8fa2004c 	lw	v0,76(sp)
  403020:	afa20018 	sw	v0,24(sp)
  403024:	8fa20048 	lw	v0,72(sp)
  403028:	afa20014 	sw	v0,20(sp)
  40302c:	8fa20040 	lw	v0,64(sp)
  403030:	0411081b 	bal	4050a0 <_nl_make_l10nflist>
  403034:	afa20010 	sw	v0,16(sp)
  403038:	8fbc0030 	lw	gp,48(sp)
  40303c:	12c00006 	beqz	s6,403058 <_nl_find_domain+0x2d8>
  403040:	0040f025 	move	s8,v0
  403044:	3c040049 	lui	a0,0x49
  403048:	8f998374 	lw	t9,-31884(gp)
  40304c:	0320f809 	jalr	t9
  403050:	24842a20 	addiu	a0,a0,10784
  403054:	8fbc0030 	lw	gp,48(sp)
  403058:	13c0000e 	beqz	s8,403094 <_nl_find_domain+0x314>
  40305c:	8fa2003c 	lw	v0,60(sp)
  403060:	8fc20004 	lw	v0,4(s8)
  403064:	18400026 	blez	v0,403100 <_nl_find_domain+0x380>
  403068:	3c190040 	lui	t9,0x40
  40306c:	8fc20008 	lw	v0,8(s8)
  403070:	1040000f 	beqz	v0,4030b0 <_nl_find_domain+0x330>
  403074:	00000000 	nop
  403078:	8fa20038 	lw	v0,56(sp)
  40307c:	10400004 	beqz	v0,403090 <_nl_find_domain+0x310>
  403080:	8f998054 	lw	t9,-32684(gp)
  403084:	0411539b 	bal	417ef4 <__free>
  403088:	02202025 	move	a0,s1
  40308c:	8fbc0030 	lw	gp,48(sp)
  403090:	8fa2003c 	lw	v0,60(sp)
  403094:	30420001 	andi	v0,v0,0x1
  403098:	1040ff7a 	beqz	v0,402e84 <_nl_find_domain+0x104>
  40309c:	8f998054 	lw	t9,-32684(gp)
  4030a0:	04115394 	bal	417ef4 <__free>
  4030a4:	8fa40050 	lw	a0,80(sp)
  4030a8:	1000ff76 	b	402e84 <_nl_find_domain+0x104>
  4030ac:	8fbc0030 	lw	gp,48(sp)
  4030b0:	8fc40010 	lw	a0,16(s8)
  4030b4:	1080fff0 	beqz	a0,403078 <_nl_find_domain+0x2f8>
  4030b8:	3c120040 	lui	s2,0x40
  4030bc:	27d00010 	addiu	s0,s8,16
  4030c0:	10000008 	b	4030e4 <_nl_find_domain+0x364>
  4030c4:	26523130 	addiu	s2,s2,12592
  4030c8:	8e020000 	lw	v0,0(s0)
  4030cc:	8c420008 	lw	v0,8(v0)
  4030d0:	1440ffea 	bnez	v0,40307c <_nl_find_domain+0x2fc>
  4030d4:	8fa20038 	lw	v0,56(sp)
  4030d8:	8e040004 	lw	a0,4(s0)
  4030dc:	1080ffe7 	beqz	a0,40307c <_nl_find_domain+0x2fc>
  4030e0:	26100004 	addiu	s0,s0,4
  4030e4:	8c820004 	lw	v0,4(a0)
  4030e8:	1c40fff7 	bgtz	v0,4030c8 <_nl_find_domain+0x348>
  4030ec:	0240c825 	move	t9,s2
  4030f0:	0411000f 	bal	403130 <_nl_load_domain>
  4030f4:	02802825 	move	a1,s4
  4030f8:	1000fff3 	b	4030c8 <_nl_find_domain+0x348>
  4030fc:	8fbc0030 	lw	gp,48(sp)
  403100:	02802825 	move	a1,s4
  403104:	27393130 	addiu	t9,t9,12592
  403108:	04110009 	bal	403130 <_nl_load_domain>
  40310c:	03c02025 	move	a0,s8
  403110:	1000ffd6 	b	40306c <_nl_find_domain+0x2ec>
  403114:	8fbc0030 	lw	gp,48(sp)
  403118:	8f998058 	lw	t9,-32680(gp)
  40311c:	041170a8 	bal	41f3c0 <__stack_chk_fail>
  403120:	00000000 	nop
	...

00403130 <_nl_load_domain>:
  403130:	3c1c004a 	lui	gp,0x4a
  403134:	27bdfe98 	addiu	sp,sp,-360
  403138:	279ca2b0 	addiu	gp,gp,-23888
  40313c:	afb60158 	sw	s6,344(sp)
  403140:	8f968038 	lw	s6,-32712(gp)
  403144:	afb00140 	sw	s0,320(sp)
  403148:	00808025 	move	s0,a0
  40314c:	afbf0164 	sw	ra,356(sp)
  403150:	afbe0160 	sw	s8,352(sp)
  403154:	afb7015c 	sw	s7,348(sp)
  403158:	afb50154 	sw	s5,340(sp)
  40315c:	afb40150 	sw	s4,336(sp)
  403160:	afb3014c 	sw	s3,332(sp)
  403164:	afb20148 	sw	s2,328(sp)
  403168:	afb10144 	sw	s1,324(sp)
  40316c:	afbc0018 	sw	gp,24(sp)
  403170:	afa50024 	sw	a1,36(sp)
  403174:	8ec20000 	lw	v0,0(s6)
  403178:	afa2013c 	sw	v0,316(sp)
  40317c:	7c03e83b 	rdhwr	v1,$29
  403180:	3c110049 	lui	s1,0x49
  403184:	24728b70 	addiu	s2,v1,-29840
  403188:	26342a50 	addiu	s4,s1,10832
  40318c:	8e820008 	lw	v0,8(s4)
  403190:	1052000c 	beq	v0,s2,4031c4 <_nl_load_domain+0x94>
  403194:	00000000 	nop
  403198:	c2232a50 	ll	v1,10832(s1)
  40319c:	14600006 	bnez	v1,4031b8 <_nl_load_domain+0x88>
  4031a0:	24020000 	li	v0,0
  4031a4:	24010001 	li	at,1
  4031a8:	e2212a50 	sc	at,10832(s1)
  4031ac:	1020fffa 	beqz	at,403198 <_nl_load_domain+0x68>
  4031b0:	24020001 	li	v0,1
  4031b4:	0000000f 	sync
  4031b8:	104000ad 	beqz	v0,403470 <_nl_load_domain+0x340>
  4031bc:	3c190041 	lui	t9,0x41
  4031c0:	ae920008 	sw	s2,8(s4)
  4031c4:	8e820004 	lw	v0,4(s4)
  4031c8:	8e030004 	lw	v1,4(s0)
  4031cc:	24440001 	addiu	a0,v0,1
  4031d0:	14600076 	bnez	v1,4033ac <_nl_load_domain+0x27c>
  4031d4:	ae840004 	sw	a0,4(s4)
  4031d8:	8e040000 	lw	a0,0(s0)
  4031dc:	2413ffff 	li	s3,-1
  4031e0:	ae000008 	sw	zero,8(s0)
  4031e4:	1080006f 	beqz	a0,4033a4 <_nl_load_domain+0x274>
  4031e8:	ae130004 	sw	s3,4(s0)
  4031ec:	3c190042 	lui	t9,0x42
  4031f0:	2739d690 	addiu	t9,t9,-10608
  4031f4:	04116926 	bal	41d690 <__open_nocancel>
  4031f8:	00002825 	move	a1,zero
  4031fc:	8fbc0018 	lw	gp,24(sp)
  403200:	10530087 	beq	v0,s3,403420 <_nl_load_domain+0x2f0>
  403204:	0040b825 	move	s7,v0
  403208:	3c190042 	lui	t9,0x42
  40320c:	27a60098 	addiu	a2,sp,152
  403210:	24040003 	li	a0,3
  403214:	2739c8d0 	addiu	t9,t9,-14128
  403218:	041165ad 	bal	41c8d0 <___fxstat64>
  40321c:	00402825 	move	a1,v0
  403220:	1440007a 	bnez	v0,40340c <_nl_load_domain+0x2dc>
  403224:	00409025 	move	s2,v0
  403228:	8fa500d4 	lw	a1,212(sp)
  40322c:	8fa200d0 	lw	v0,208(sp)
  403230:	14400076 	bnez	v0,40340c <_nl_load_domain+0x2dc>
  403234:	afa50028 	sw	a1,40(sp)
  403238:	2ca20030 	sltiu	v0,a1,48
  40323c:	14400073 	bnez	v0,40340c <_nl_load_domain+0x2dc>
  403240:	3c190042 	lui	t9,0x42
  403244:	afa00014 	sw	zero,20(sp)
  403248:	24070002 	li	a3,2
  40324c:	afb70010 	sw	s7,16(sp)
  403250:	24060001 	li	a2,1
  403254:	2739daa0 	addiu	t9,t9,-9568
  403258:	04116a11 	bal	41daa0 <__mmap>
  40325c:	00002025 	move	a0,zero
  403260:	8fbc0018 	lw	gp,24(sp)
  403264:	105300f9 	beq	v0,s3,40364c <_nl_load_domain+0x51c>
  403268:	0040a825 	move	s5,v0
  40326c:	3c190042 	lui	t9,0x42
  403270:	2739d510 	addiu	t9,t9,-10992
  403274:	041168a6 	bal	41d510 <__close_nocancel>
  403278:	02e02025 	move	a0,s7
  40327c:	3c029504 	lui	v0,0x9504
  403280:	8ea30000 	lw	v1,0(s5)
  403284:	244212de 	addiu	v0,v0,4830
  403288:	14620171 	bne	v1,v0,403850 <_nl_load_domain+0x720>
  40328c:	8fbc0018 	lw	gp,24(sp)
  403290:	24020001 	li	v0,1
  403294:	afa2002c 	sw	v0,44(sp)
  403298:	8f9980cc 	lw	t9,-32564(gp)
  40329c:	04115148 	bal	4177c0 <__libc_malloc>
  4032a0:	24040068 	li	a0,104
  4032a4:	8fbc0018 	lw	gp,24(sp)
  4032a8:	1040005d 	beqz	v0,403420 <_nl_load_domain+0x2f0>
  4032ac:	0040f025 	move	s8,v0
  4032b0:	8ea20004 	lw	v0,4(s5)
  4032b4:	8fa3002c 	lw	v1,44(sp)
  4032b8:	ae1e0008 	sw	s8,8(s0)
  4032bc:	00022403 	sra	a0,v0,0x10
  4032c0:	afd50000 	sw	s5,0(s8)
  4032c4:	afc30004 	sw	v1,4(s8)
  4032c8:	afc0000c 	sw	zero,12(s8)
  4032cc:	2c840002 	sltiu	a0,a0,2
  4032d0:	afc00010 	sw	zero,16(s8)
  4032d4:	8fa30028 	lw	v1,40(sp)
  4032d8:	10800071 	beqz	a0,4034a0 <_nl_load_domain+0x370>
  4032dc:	afc30008 	sw	v1,8(s8)
  4032e0:	8ea5000c 	lw	a1,12(s5)
  4032e4:	3042ffff 	andi	v0,v0,0xffff
  4032e8:	8ea40010 	lw	a0,16(s5)
  4032ec:	8eb70014 	lw	s7,20(s5)
  4032f0:	8eaa0008 	lw	t2,8(s5)
  4032f4:	02a52821 	addu	a1,s5,a1
  4032f8:	02a42021 	addu	a0,s5,a0
  4032fc:	2ee60003 	sltiu	a2,s7,3
  403300:	afc50018 	sw	a1,24(s8)
  403304:	afca0014 	sw	t2,20(s8)
  403308:	afc4001c 	sw	a0,28(s8)
  40330c:	10c0007f 	beqz	a2,40350c <_nl_load_domain+0x3dc>
  403310:	afd7002c 	sw	s7,44(s8)
  403314:	afc00030 	sw	zero,48(s8)
  403318:	1440007a 	bnez	v0,403504 <_nl_load_domain+0x3d4>
  40331c:	afd20034 	sw	s2,52(s8)
  403320:	afc00020 	sw	zero,32(s8)
  403324:	afc00024 	sw	zero,36(s8)
  403328:	afc00028 	sw	zero,40(s8)
  40332c:	8f8283a0 	lw	v0,-31840(gp)
  403330:	afc00038 	sw	zero,56(s8)
  403334:	10400005 	beqz	v0,40334c <_nl_load_domain+0x21c>
  403338:	afc0003c 	sw	zero,60(s8)
  40333c:	8f9983a0 	lw	t9,-31840(gp)
  403340:	00002825 	move	a1,zero
  403344:	0320f809 	jalr	t9
  403348:	27c40040 	addiu	a0,s8,64
  40334c:	3c060047 	lui	a2,0x47
  403350:	8fa50024 	lw	a1,36(sp)
  403354:	3c190040 	lui	t9,0x40
  403358:	27a2008c 	addiu	v0,sp,140
  40335c:	00003825 	move	a3,zero
  403360:	24c67208 	addiu	a2,a2,29192
  403364:	afa20010 	sw	v0,16(sp)
  403368:	2739178c 	addiu	t9,t9,6028
  40336c:	0411f907 	bal	40178c <_nl_find_msg>
  403370:	02002025 	move	a0,s0
  403374:	2405ffff 	li	a1,-1
  403378:	8fbc0018 	lw	gp,24(sp)
  40337c:	10450041 	beq	v0,a1,403484 <_nl_load_domain+0x354>
  403380:	00402025 	move	a0,v0
  403384:	3c190040 	lui	t9,0x40
  403388:	27c60064 	addiu	a2,s8,100
  40338c:	273965a0 	addiu	t9,t9,26016
  403390:	04110c83 	bal	4065a0 <__gettext_extract_plural>
  403394:	27c50060 	addiu	a1,s8,96
  403398:	8e820004 	lw	v0,4(s4)
  40339c:	8fbc0018 	lw	gp,24(sp)
  4033a0:	2442ffff 	addiu	v0,v0,-1
  4033a4:	24030001 	li	v1,1
  4033a8:	ae030004 	sw	v1,4(s0)
  4033ac:	1040001f 	beqz	v0,40342c <_nl_load_domain+0x2fc>
  4033b0:	ae820004 	sw	v0,4(s4)
  4033b4:	8fa3013c 	lw	v1,316(sp)
  4033b8:	8ec20000 	lw	v0,0(s6)
  4033bc:	146203b4 	bne	v1,v0,404290 <_nl_load_domain+0x1160>
  4033c0:	8f998058 	lw	t9,-32680(gp)
  4033c4:	8fbf0164 	lw	ra,356(sp)
  4033c8:	8fbe0160 	lw	s8,352(sp)
  4033cc:	8fb7015c 	lw	s7,348(sp)
  4033d0:	8fb60158 	lw	s6,344(sp)
  4033d4:	8fb50154 	lw	s5,340(sp)
  4033d8:	8fb40150 	lw	s4,336(sp)
  4033dc:	8fb3014c 	lw	s3,332(sp)
  4033e0:	8fb20148 	lw	s2,328(sp)
  4033e4:	8fb10144 	lw	s1,324(sp)
  4033e8:	8fb00140 	lw	s0,320(sp)
  4033ec:	03e00008 	jr	ra
  4033f0:	27bd0168 	addiu	sp,sp,360
  4033f4:	14430005 	bne	v0,v1,40340c <_nl_load_domain+0x2dc>
  4033f8:	24030004 	li	v1,4
  4033fc:	8fa20030 	lw	v0,48(sp)
  403400:	8c420000 	lw	v0,0(v0)
  403404:	104300a2 	beq	v0,v1,403690 <_nl_load_domain+0x560>
  403408:	8fb9002c 	lw	t9,44(sp)
  40340c:	3c190042 	lui	t9,0x42
  403410:	2739d510 	addiu	t9,t9,-10992
  403414:	0411683e 	bal	41d510 <__close_nocancel>
  403418:	02e02025 	move	a0,s7
  40341c:	8fbc0018 	lw	gp,24(sp)
  403420:	8e820004 	lw	v0,4(s4)
  403424:	1000ffdf 	b	4033a4 <_nl_load_domain+0x274>
  403428:	2442ffff 	addiu	v0,v0,-1
  40342c:	ae800008 	sw	zero,8(s4)
  403430:	0000000f 	sync
  403434:	c2222a50 	ll	v0,10832(s1)
  403438:	24010000 	li	at,0
  40343c:	e2212a50 	sc	at,10832(s1)
  403440:	1020fffc 	beqz	at,403434 <_nl_load_domain+0x304>
  403444:	00000000 	nop
  403448:	28420002 	slti	v0,v0,2
  40344c:	1440ffd9 	bnez	v0,4033b4 <_nl_load_domain+0x284>
  403450:	24060001 	li	a2,1
  403454:	24050081 	li	a1,129
  403458:	00003825 	move	a3,zero
  40345c:	02802025 	move	a0,s4
  403460:	2402108e 	li	v0,4238
  403464:	0000000c 	syscall
  403468:	1000ffd2 	b	4033b4 <_nl_load_domain+0x284>
  40346c:	00000000 	nop
  403470:	27392550 	addiu	t9,t9,9552
  403474:	04113c36 	bal	412550 <__lll_lock_wait_private>
  403478:	02802025 	move	a0,s4
  40347c:	1000ff50 	b	4031c0 <_nl_load_domain+0x90>
  403480:	8fbc0018 	lw	gp,24(sp)
  403484:	8f82833c 	lw	v0,-31940(gp)
  403488:	1040001e 	beqz	v0,403504 <_nl_load_domain+0x3d4>
  40348c:	8f99833c 	lw	t9,-31940(gp)
  403490:	0320f809 	jalr	t9
  403494:	27c40040 	addiu	a0,s8,64
  403498:	8fbc0018 	lw	gp,24(sp)
  40349c:	8fc40010 	lw	a0,16(s8)
  4034a0:	8f998054 	lw	t9,-32684(gp)
  4034a4:	04115293 	bal	417ef4 <__free>
  4034a8:	00000000 	nop
  4034ac:	8fa2002c 	lw	v0,44(sp)
  4034b0:	1440000d 	bnez	v0,4034e8 <_nl_load_domain+0x3b8>
  4034b4:	8fbc0018 	lw	gp,24(sp)
  4034b8:	8f998054 	lw	t9,-32684(gp)
  4034bc:	0411528d 	bal	417ef4 <__free>
  4034c0:	02a02025 	move	a0,s5
  4034c4:	8fbc0018 	lw	gp,24(sp)
  4034c8:	8f998054 	lw	t9,-32684(gp)
  4034cc:	04115289 	bal	417ef4 <__free>
  4034d0:	03c02025 	move	a0,s8
  4034d4:	8e820004 	lw	v0,4(s4)
  4034d8:	8fbc0018 	lw	gp,24(sp)
  4034dc:	ae000008 	sw	zero,8(s0)
  4034e0:	1000ffb0 	b	4033a4 <_nl_load_domain+0x274>
  4034e4:	2442ffff 	addiu	v0,v0,-1
  4034e8:	3c190042 	lui	t9,0x42
  4034ec:	8fa50028 	lw	a1,40(sp)
  4034f0:	2739dc2c 	addiu	t9,t9,-9172
  4034f4:	041169cd 	bal	41dc2c <__munmap>
  4034f8:	02a02025 	move	a0,s5
  4034fc:	1000fff2 	b	4034c8 <_nl_load_domain+0x398>
  403500:	8fbc0018 	lw	gp,24(sp)
  403504:	1000ffe6 	b	4034a0 <_nl_load_domain+0x370>
  403508:	8fc40010 	lw	a0,16(s8)
  40350c:	8ea40018 	lw	a0,24(s5)
  403510:	afc00034 	sw	zero,52(s8)
  403514:	02a41821 	addu	v1,s5,a0
  403518:	afa30054 	sw	v1,84(sp)
  40351c:	1040ff80 	beqz	v0,403320 <_nl_load_domain+0x1f0>
  403520:	afc30030 	sw	v1,48(s8)
  403524:	8ea20024 	lw	v0,36(s5)
  403528:	1040ff7d 	beqz	v0,403320 <_nl_load_domain+0x1f0>
  40352c:	afa20044 	sw	v0,68(sp)
  403530:	8ea2001c 	lw	v0,28(s5)
  403534:	3c0a9504 	lui	t2,0x9504
  403538:	8eb20020 	lw	s2,32(s5)
  40353c:	255312de 	addiu	s3,t2,4830
  403540:	afa20040 	sw	v0,64(sp)
  403544:	8f99805c 	lw	t9,-32676(gp)
  403548:	24050004 	li	a1,4
  40354c:	8fa40040 	lw	a0,64(sp)
  403550:	04115474 	bal	418724 <__calloc>
  403554:	02b29021 	addu	s2,s5,s2
  403558:	8fbc0018 	lw	gp,24(sp)
  40355c:	1040ffe9 	beqz	v0,403504 <_nl_load_domain+0x3d4>
  403560:	afa2004c 	sw	v0,76(sp)
  403564:	8fa20040 	lw	v0,64(sp)
  403568:	104000c8 	beqz	v0,40388c <_nl_load_domain+0x75c>
  40356c:	3c020046 	lui	v0,0x46
  403570:	8fa4004c 	lw	a0,76(sp)
  403574:	3c0b0046 	lui	t3,0x46
  403578:	8fac0040 	lw	t4,64(sp)
  40357c:	24437548 	addiu	v1,v0,30024
  403580:	3c020046 	lui	v0,0x46
  403584:	3c0e0047 	lui	t6,0x47
  403588:	244a5588 	addiu	t2,v0,21896
  40358c:	3c020046 	lui	v0,0x46
  403590:	3c0d0046 	lui	t5,0x46
  403594:	24497710 	addiu	t1,v0,30480
  403598:	3c020047 	lui	v0,0x47
  40359c:	3c1f0046 	lui	ra,0x46
  4035a0:	24486000 	addiu	t0,v0,24576
  4035a4:	3c020046 	lui	v0,0x46
  4035a8:	00002825 	move	a1,zero
  4035ac:	24475594 	addiu	a3,v0,21908
  4035b0:	3c020046 	lui	v0,0x46
  4035b4:	256b55a0 	addiu	t3,t3,21920
  4035b8:	24465580 	addiu	a2,v0,21888
  4035bc:	3c020046 	lui	v0,0x46
  4035c0:	25ce6f84 	addiu	t6,t6,28548
  4035c4:	25ad5584 	addiu	t5,t5,21892
  4035c8:	afa20030 	sw	v0,48(sp)
  4035cc:	10000018 	b	403630 <_nl_load_domain+0x500>
  4035d0:	27ff5590 	addiu	ra,ra,21904
  4035d4:	7c0210a0 	wsbh	v0,v0
  4035d8:	7c0f78a0 	wsbh	t7,t7
  4035dc:	00221402 	ror	v0,v0,0x10
  4035e0:	002f7c02 	ror	t7,t7,0x10
  4035e4:	02a21021 	addu	v0,s5,v0
  4035e8:	11e00091 	beqz	t7,403830 <_nl_load_domain+0x700>
  4035ec:	004f7821 	addu	t7,v0,t7
  4035f0:	81efffff 	lb	t7,-1(t7)
  4035f4:	15e0008e 	bnez	t7,403830 <_nl_load_domain+0x700>
  4035f8:	24180050 	li	t8,80
  4035fc:	804f0000 	lb	t7,0(v0)
  403600:	11f80066 	beq	t7,t8,40379c <_nl_load_domain+0x66c>
  403604:	24180049 	li	t8,73
  403608:	15f8008f 	bne	t7,t8,403848 <_nl_load_domain+0x718>
  40360c:	01607825 	move	t7,t3
  403610:	80420001 	lb	v0,1(v0)
  403614:	0002780b 	movn	t7,zero,v0
  403618:	01e01025 	move	v0,t7
  40361c:	24a50001 	addiu	a1,a1,1
  403620:	ac820000 	sw	v0,0(a0)
  403624:	26520008 	addiu	s2,s2,8
  403628:	10ac0098 	beq	a1,t4,40388c <_nl_load_domain+0x75c>
  40362c:	24840004 	addiu	a0,a0,4
  403630:	3c189504 	lui	t8,0x9504
  403634:	8e420004 	lw	v0,4(s2)
  403638:	271812de 	addiu	t8,t8,4830
  40363c:	1678ffe5 	bne	s3,t8,4035d4 <_nl_load_domain+0x4a4>
  403640:	8e4f0000 	lw	t7,0(s2)
  403644:	1000ffe8 	b	4035e8 <_nl_load_domain+0x4b8>
  403648:	02a21021 	addu	v0,s5,v0
  40364c:	8fbe0028 	lw	s8,40(sp)
  403650:	8f9980cc 	lw	t9,-32564(gp)
  403654:	0411505a 	bal	4177c0 <__libc_malloc>
  403658:	03c02025 	move	a0,s8
  40365c:	8fbc0018 	lw	gp,24(sp)
  403660:	1040ff6a 	beqz	v0,40340c <_nl_load_domain+0x2dc>
  403664:	0040a825 	move	s5,v0
  403668:	3c130042 	lui	s3,0x42
  40366c:	7c03e83b 	rdhwr	v1,$29
  403670:	00601025 	move	v0,v1
  403674:	2663d800 	addiu	v1,s3,-10240
  403678:	02a09825 	move	s3,s5
  40367c:	afa3002c 	sw	v1,44(sp)
  403680:	8f8383e4 	lw	v1,-31772(gp)
  403684:	00621021 	addu	v0,v1,v0
  403688:	afa20030 	sw	v0,48(sp)
  40368c:	8fb9002c 	lw	t9,44(sp)
  403690:	03c03025 	move	a2,s8
  403694:	02602825 	move	a1,s3
  403698:	0320f809 	jalr	t9
  40369c:	02e02025 	move	a0,s7
  4036a0:	1840ff54 	blez	v0,4033f4 <_nl_load_domain+0x2c4>
  4036a4:	2403ffff 	li	v1,-1
  4036a8:	03c2f023 	subu	s8,s8,v0
  4036ac:	17c0fff7 	bnez	s8,40368c <_nl_load_domain+0x55c>
  4036b0:	02629821 	addu	s3,s3,v0
  4036b4:	3c190042 	lui	t9,0x42
  4036b8:	2739d510 	addiu	t9,t9,-10992
  4036bc:	04116794 	bal	41d510 <__close_nocancel>
  4036c0:	02e02025 	move	a0,s7
  4036c4:	3c029504 	lui	v0,0x9504
  4036c8:	8ea30000 	lw	v1,0(s5)
  4036cc:	244212de 	addiu	v0,v0,4830
  4036d0:	8fbc0018 	lw	gp,24(sp)
  4036d4:	1062fef0 	beq	v1,v0,403298 <_nl_load_domain+0x168>
  4036d8:	afa0002c 	sw	zero,44(sp)
  4036dc:	3c02de12 	lui	v0,0xde12
  4036e0:	24420495 	addiu	v0,v0,1173
  4036e4:	1462015c 	bne	v1,v0,403c58 <_nl_load_domain+0xb28>
  4036e8:	8f998054 	lw	t9,-32684(gp)
  4036ec:	8f9980cc 	lw	t9,-32564(gp)
  4036f0:	04115033 	bal	4177c0 <__libc_malloc>
  4036f4:	24040068 	li	a0,104
  4036f8:	8fbc0018 	lw	gp,24(sp)
  4036fc:	1040ff48 	beqz	v0,403420 <_nl_load_domain+0x2f0>
  403700:	0040f025 	move	s8,v0
  403704:	8ea20004 	lw	v0,4(s5)
  403708:	240a0001 	li	t2,1
  40370c:	8fa3002c 	lw	v1,44(sp)
  403710:	ae1e0008 	sw	s8,8(s0)
  403714:	7c0210a0 	wsbh	v0,v0
  403718:	afd50000 	sw	s5,0(s8)
  40371c:	afc30004 	sw	v1,4(s8)
  403720:	00221402 	ror	v0,v0,0x10
  403724:	afca000c 	sw	t2,12(s8)
  403728:	afc00010 	sw	zero,16(s8)
  40372c:	8fa30028 	lw	v1,40(sp)
  403730:	00022403 	sra	a0,v0,0x10
  403734:	2c840002 	sltiu	a0,a0,2
  403738:	1080ff59 	beqz	a0,4034a0 <_nl_load_domain+0x370>
  40373c:	afc30008 	sw	v1,8(s8)
  403740:	8ea5000c 	lw	a1,12(s5)
  403744:	3042ffff 	andi	v0,v0,0xffff
  403748:	8ea40010 	lw	a0,16(s5)
  40374c:	8ea70014 	lw	a3,20(s5)
  403750:	8ea60008 	lw	a2,8(s5)
  403754:	7c0528a0 	wsbh	a1,a1
  403758:	7c0420a0 	wsbh	a0,a0
  40375c:	7c07b8a0 	wsbh	s7,a3
  403760:	7c0630a0 	wsbh	a2,a2
  403764:	00252c02 	ror	a1,a1,0x10
  403768:	00242402 	ror	a0,a0,0x10
  40376c:	0037bc02 	ror	s7,s7,0x10
  403770:	00263402 	ror	a2,a2,0x10
  403774:	02a52821 	addu	a1,s5,a1
  403778:	afd7002c 	sw	s7,44(s8)
  40377c:	02a42021 	addu	a0,s5,a0
  403780:	afc60014 	sw	a2,20(s8)
  403784:	2ee60003 	sltiu	a2,s7,3
  403788:	afc50018 	sw	a1,24(s8)
  40378c:	10c00009 	beqz	a2,4037b4 <_nl_load_domain+0x684>
  403790:	afc4001c 	sw	a0,28(s8)
  403794:	1000fedf 	b	403314 <_nl_load_domain+0x1e4>
  403798:	24120001 	li	s2,1
  40379c:	80580001 	lb	t8,1(v0)
  4037a0:	240f0052 	li	t7,82
  4037a4:	130f001a 	beq	t8,t7,403810 <_nl_load_domain+0x6e0>
  4037a8:	240f0049 	li	t7,73
  4037ac:	1000ff9b 	b	40361c <_nl_load_domain+0x4ec>
  4037b0:	00001025 	move	v0,zero
  4037b4:	8ea40018 	lw	a0,24(s5)
  4037b8:	afca0034 	sw	t2,52(s8)
  4037bc:	7c0420a0 	wsbh	a0,a0
  4037c0:	00242402 	ror	a0,a0,0x10
  4037c4:	02a41821 	addu	v1,s5,a0
  4037c8:	afa30054 	sw	v1,84(sp)
  4037cc:	1040fed4 	beqz	v0,403320 <_nl_load_domain+0x1f0>
  4037d0:	afc30030 	sw	v1,48(s8)
  4037d4:	8ea20024 	lw	v0,36(s5)
  4037d8:	7c0218a0 	wsbh	v1,v0
  4037dc:	00231c02 	ror	v1,v1,0x10
  4037e0:	1040fecf 	beqz	v0,403320 <_nl_load_domain+0x1f0>
  4037e4:	afa30044 	sw	v1,68(sp)
  4037e8:	8ea6001c 	lw	a2,28(s5)
  4037ec:	3c0ade12 	lui	t2,0xde12
  4037f0:	8eb20020 	lw	s2,32(s5)
  4037f4:	25530495 	addiu	s3,t2,1173
  4037f8:	7c0610a0 	wsbh	v0,a2
  4037fc:	7c1290a0 	wsbh	s2,s2
  403800:	00221402 	ror	v0,v0,0x10
  403804:	00329402 	ror	s2,s2,0x10
  403808:	1000ff4e 	b	403544 <_nl_load_domain+0x414>
  40380c:	afa20040 	sw	v0,64(sp)
  403810:	80580002 	lb	t8,2(v0)
  403814:	130f009c 	beq	t8,t7,403a88 <_nl_load_domain+0x958>
  403818:	00000000 	nop
  40381c:	1000ff7f 	b	40361c <_nl_load_domain+0x4ec>
  403820:	00001025 	move	v0,zero
  403824:	8fb50048 	lw	s5,72(sp)
  403828:	8fbe0064 	lw	s8,100(sp)
  40382c:	8fb00068 	lw	s0,104(sp)
  403830:	8f998054 	lw	t9,-32684(gp)
  403834:	041151af 	bal	417ef4 <__free>
  403838:	8fa4004c 	lw	a0,76(sp)
  40383c:	8fbc0018 	lw	gp,24(sp)
  403840:	1000ff17 	b	4034a0 <_nl_load_domain+0x370>
  403844:	8fc40010 	lw	a0,16(s8)
  403848:	1000ff74 	b	40361c <_nl_load_domain+0x4ec>
  40384c:	00001025 	move	v0,zero
  403850:	24020001 	li	v0,1
  403854:	afa2002c 	sw	v0,44(sp)
  403858:	3c02de12 	lui	v0,0xde12
  40385c:	24420495 	addiu	v0,v0,1173
  403860:	1062ffa3 	beq	v1,v0,4036f0 <_nl_load_domain+0x5c0>
  403864:	8f9980cc 	lw	t9,-32564(gp)
  403868:	3c190042 	lui	t9,0x42
  40386c:	8fa50028 	lw	a1,40(sp)
  403870:	2739dc2c 	addiu	t9,t9,-9172
  403874:	041168ed 	bal	41dc2c <__munmap>
  403878:	02a02025 	move	a0,s5
  40387c:	8e820004 	lw	v0,4(s4)
  403880:	8fbc0018 	lw	gp,24(sp)
  403884:	1000fec7 	b	4033a4 <_nl_load_domain+0x274>
  403888:	2442ffff 	addiu	v0,v0,-1
  40388c:	3c029504 	lui	v0,0x9504
  403890:	8ea50028 	lw	a1,40(s5)
  403894:	244212de 	addiu	v0,v0,4830
  403898:	12620094 	beq	s3,v0,403aec <_nl_load_domain+0x9bc>
  40389c:	8ea4002c 	lw	a0,44(s5)
  4038a0:	7c0528a0 	wsbh	a1,a1
  4038a4:	7c0420a0 	wsbh	a0,a0
  4038a8:	00252c02 	ror	a1,a1,0x10
  4038ac:	00242402 	ror	a0,a0,0x10
  4038b0:	02a51021 	addu	v0,s5,a1
  4038b4:	afa20058 	sw	v0,88(sp)
  4038b8:	3c129504 	lui	s2,0x9504
  4038bc:	afb50048 	sw	s5,72(sp)
  4038c0:	02a42021 	addu	a0,s5,a0
  4038c4:	afa00038 	sw	zero,56(sp)
  4038c8:	264212de 	addiu	v0,s2,4830
  4038cc:	afa0005c 	sw	zero,92(sp)
  4038d0:	00171880 	sll	v1,s7,0x2
  4038d4:	afa40074 	sw	a0,116(sp)
  4038d8:	afa20030 	sw	v0,48(sp)
  4038dc:	3c020042 	lui	v0,0x42
  4038e0:	afa30070 	sw	v1,112(sp)
  4038e4:	24429d50 	addiu	v0,v0,-25264
  4038e8:	afa4003c 	sw	a0,60(sp)
  4038ec:	afa30060 	sw	v1,96(sp)
  4038f0:	afa20034 	sw	v0,52(sp)
  4038f4:	27a20090 	addiu	v0,sp,144
  4038f8:	afb7006c 	sw	s7,108(sp)
  4038fc:	afa20050 	sw	v0,80(sp)
  403900:	afbe0064 	sw	s8,100(sp)
  403904:	afb00068 	sw	s0,104(sp)
  403908:	8fb5004c 	lw	s5,76(sp)
  40390c:	10000028 	b	4039b0 <_nl_load_domain+0x880>
  403910:	8fb20040 	lw	s2,64(sp)
  403914:	12000059 	beqz	s0,403a7c <_nl_load_domain+0x94c>
  403918:	8fa2003c 	lw	v0,60(sp)
  40391c:	8c5e0000 	lw	s8,0(v0)
  403920:	7c1ef0a0 	wsbh	s8,s8
  403924:	8fa20048 	lw	v0,72(sp)
  403928:	003ef402 	ror	s8,s8,0x10
  40392c:	005ef021 	addu	s8,v0,s8
  403930:	8fc20008 	lw	v0,8(s8)
  403934:	7c0210a0 	wsbh	v0,v0
  403938:	00221402 	ror	v0,v0,0x10
  40393c:	24420001 	addiu	v0,v0,1
  403940:	0002102b 	sltu	v0,zero,v0
  403944:	1440002f 	bnez	v0,403a04 <_nl_load_domain+0x8d4>
  403948:	00000000 	nop
  40394c:	0000b825 	move	s7,zero
  403950:	8fa30050 	lw	v1,80(sp)
  403954:	00101080 	sll	v0,s0,0x2
  403958:	00621021 	addu	v0,v1,v0
  40395c:	ac570000 	sw	s7,0(v0)
  403960:	24020001 	li	v0,1
  403964:	16020025 	bne	s0,v0,4039fc <_nl_load_domain+0x8cc>
  403968:	8fa2005c 	lw	v0,92(sp)
  40396c:	8fa30094 	lw	v1,148(sp)
  403970:	24420001 	addiu	v0,v0,1
  403974:	afa2005c 	sw	v0,92(sp)
  403978:	8fa20090 	lw	v0,144(sp)
  40397c:	00431021 	addu	v0,v0,v1
  403980:	8fa30060 	lw	v1,96(sp)
  403984:	00621021 	addu	v0,v1,v0
  403988:	afa20060 	sw	v0,96(sp)
  40398c:	8fa3003c 	lw	v1,60(sp)
  403990:	8fa20038 	lw	v0,56(sp)
  403994:	24630004 	addiu	v1,v1,4
  403998:	24420001 	addiu	v0,v0,1
  40399c:	afa3003c 	sw	v1,60(sp)
  4039a0:	afa20038 	sw	v0,56(sp)
  4039a4:	8fa30044 	lw	v1,68(sp)
  4039a8:	10430097 	beq	v0,v1,403c08 <_nl_load_domain+0xad8>
  4039ac:	8fa2005c 	lw	v0,92(sp)
  4039b0:	8fa20038 	lw	v0,56(sp)
  4039b4:	00008025 	move	s0,zero
  4039b8:	8fa30058 	lw	v1,88(sp)
  4039bc:	00021080 	sll	v0,v0,0x2
  4039c0:	00621021 	addu	v0,v1,v0
  4039c4:	afa20040 	sw	v0,64(sp)
  4039c8:	8fa20030 	lw	v0,48(sp)
  4039cc:	1662ffd1 	bne	s3,v0,403914 <_nl_load_domain+0x7e4>
  4039d0:	00000000 	nop
  4039d4:	12000026 	beqz	s0,403a70 <_nl_load_domain+0x940>
  4039d8:	00000000 	nop
  4039dc:	8fa2003c 	lw	v0,60(sp)
  4039e0:	8c5e0000 	lw	s8,0(v0)
  4039e4:	8fa20048 	lw	v0,72(sp)
  4039e8:	005ef021 	addu	s8,v0,s8
  4039ec:	8fc20008 	lw	v0,8(s8)
  4039f0:	24420001 	addiu	v0,v0,1
  4039f4:	1000ffd3 	b	403944 <_nl_load_domain+0x814>
  4039f8:	0002102b 	sltu	v0,zero,v0
  4039fc:	1000fff2 	b	4039c8 <_nl_load_domain+0x898>
  403a00:	24100001 	li	s0,1
  403a04:	27de0004 	addiu	s8,s8,4
  403a08:	10000013 	b	403a58 <_nl_load_domain+0x928>
  403a0c:	0000b825 	move	s7,zero
  403a10:	7c0420a0 	wsbh	a0,a0
  403a14:	7c0318a0 	wsbh	v1,v1
  403a18:	00242402 	ror	a0,a0,0x10
  403a1c:	00231c02 	ror	v1,v1,0x10
  403a20:	02e4b821 	addu	s7,s7,a0
  403a24:	2402ffff 	li	v0,-1
  403a28:	1062ffc9 	beq	v1,v0,403950 <_nl_load_domain+0x820>
  403a2c:	0072102b 	sltu	v0,v1,s2
  403a30:	1040ff7c 	beqz	v0,403824 <_nl_load_domain+0x6f4>
  403a34:	00031880 	sll	v1,v1,0x2
  403a38:	02a31821 	addu	v1,s5,v1
  403a3c:	8c640000 	lw	a0,0(v1)
  403a40:	1080ffd2 	beqz	a0,40398c <_nl_load_domain+0x85c>
  403a44:	8fb90034 	lw	t9,52(sp)
  403a48:	0320f809 	jalr	t9
  403a4c:	27de0008 	addiu	s8,s8,8
  403a50:	8fbc0018 	lw	gp,24(sp)
  403a54:	0057b821 	addu	s7,v0,s7
  403a58:	8fa20030 	lw	v0,48(sp)
  403a5c:	8fc40000 	lw	a0,0(s8)
  403a60:	1662ffeb 	bne	s3,v0,403a10 <_nl_load_domain+0x8e0>
  403a64:	8fc30004 	lw	v1,4(s8)
  403a68:	1000ffee 	b	403a24 <_nl_load_domain+0x8f4>
  403a6c:	02e4b821 	addu	s7,s7,a0
  403a70:	8fa20040 	lw	v0,64(sp)
  403a74:	1000ffdb 	b	4039e4 <_nl_load_domain+0x8b4>
  403a78:	8c5e0000 	lw	s8,0(v0)
  403a7c:	8fa20040 	lw	v0,64(sp)
  403a80:	1000ffa7 	b	403920 <_nl_load_domain+0x7f0>
  403a84:	8c5e0000 	lw	s8,0(v0)
  403a88:	804f0003 	lb	t7,3(v0)
  403a8c:	25f8ff9c 	addiu	t8,t7,-100
  403a90:	331800ff 	andi	t8,t8,0xff
  403a94:	2f190012 	sltiu	t9,t8,18
  403a98:	17200017 	bnez	t9,403af8 <_nl_load_domain+0x9c8>
  403a9c:	3c190002 	lui	t9,0x2
  403aa0:	2418ffdf 	li	t8,-33
  403aa4:	24190058 	li	t9,88
  403aa8:	01f8c024 	and	t8,t7,t8
  403aac:	171902be 	bne	t8,t9,4045a8 <_nl_load_domain+0x1478>
  403ab0:	00000000 	nop
  403ab4:	80580004 	lb	t8,4(v0)
  403ab8:	24190038 	li	t9,56
  403abc:	13190035 	beq	t8,t9,403b94 <_nl_load_domain+0xa64>
  403ac0:	24190031 	li	t9,49
  403ac4:	1319004a 	beq	t8,t9,403bf0 <_nl_load_domain+0xac0>
  403ac8:	24190033 	li	t9,51
  403acc:	17190011 	bne	t8,t9,403b14 <_nl_load_domain+0x9e4>
  403ad0:	24190036 	li	t9,54
  403ad4:	80590005 	lb	t9,5(v0)
  403ad8:	24180032 	li	t8,50
  403adc:	133801b1 	beq	t9,t8,4041a4 <_nl_load_domain+0x1074>
  403ae0:	00000000 	nop
  403ae4:	1000fecd 	b	40361c <_nl_load_domain+0x4ec>
  403ae8:	00001025 	move	v0,zero
  403aec:	02a51021 	addu	v0,s5,a1
  403af0:	1000ff71 	b	4038b8 <_nl_load_domain+0x788>
  403af4:	afa20058 	sw	v0,88(sp)
  403af8:	27390821 	addiu	t9,t9,2081
  403afc:	0319c006 	srlv	t8,t9,t8
  403b00:	7f180000 	ext	t8,t8,0x0,0x1
  403b04:	1700ffeb 	bnez	t8,403ab4 <_nl_load_domain+0x984>
  403b08:	00000000 	nop
  403b0c:	1000fec3 	b	40361c <_nl_load_domain+0x4ec>
  403b10:	00001025 	move	v0,zero
  403b14:	17190007 	bne	t8,t9,403b34 <_nl_load_domain+0xa04>
  403b18:	2419004c 	li	t9,76
  403b1c:	80590005 	lb	t9,5(v0)
  403b20:	24180034 	li	t8,52
  403b24:	133801be 	beq	t9,t8,404220 <_nl_load_domain+0x10f0>
  403b28:	00000000 	nop
  403b2c:	1000febb 	b	40361c <_nl_load_domain+0x4ec>
  403b30:	00001025 	move	v0,zero
  403b34:	17190007 	bne	t8,t9,403b54 <_nl_load_domain+0xa24>
  403b38:	24190046 	li	t9,70
  403b3c:	80590005 	lb	t9,5(v0)
  403b40:	24180045 	li	t8,69
  403b44:	1338018d 	beq	t9,t8,40417c <_nl_load_domain+0x104c>
  403b48:	24180041 	li	t8,65
  403b4c:	1000feb3 	b	40361c <_nl_load_domain+0x4ec>
  403b50:	00001025 	move	v0,zero
  403b54:	17190007 	bne	t8,t9,403b74 <_nl_load_domain+0xa44>
  403b58:	2419004d 	li	t9,77
  403b5c:	80590005 	lb	t9,5(v0)
  403b60:	24180041 	li	t8,65
  403b64:	1338018a 	beq	t9,t8,404190 <_nl_load_domain+0x1060>
  403b68:	24180053 	li	t8,83
  403b6c:	1000feab 	b	40361c <_nl_load_domain+0x4ec>
  403b70:	00001025 	move	v0,zero
  403b74:	17190031 	bne	t8,t9,403c3c <_nl_load_domain+0xb0c>
  403b78:	24190050 	li	t9,80
  403b7c:	80590005 	lb	t9,5(v0)
  403b80:	24180041 	li	t8,65
  403b84:	13380175 	beq	t9,t8,40415c <_nl_load_domain+0x102c>
  403b88:	24180058 	li	t8,88
  403b8c:	1000fea3 	b	40361c <_nl_load_domain+0x4ec>
  403b90:	00001025 	move	v0,zero
  403b94:	80420005 	lb	v0,5(v0)
  403b98:	1440fea0 	bnez	v0,40361c <_nl_load_domain+0x4ec>
  403b9c:	00001025 	move	v0,zero
  403ba0:	24020064 	li	v0,100
  403ba4:	11e2fe9d 	beq	t7,v0,40361c <_nl_load_domain+0x4ec>
  403ba8:	01c01025 	move	v0,t6
  403bac:	24020069 	li	v0,105
  403bb0:	11e2fe9a 	beq	t7,v0,40361c <_nl_load_domain+0x4ec>
  403bb4:	01a01025 	move	v0,t5
  403bb8:	2402006f 	li	v0,111
  403bbc:	11e2fe97 	beq	t7,v0,40361c <_nl_load_domain+0x4ec>
  403bc0:	00601025 	move	v0,v1
  403bc4:	24020075 	li	v0,117
  403bc8:	11e2fe94 	beq	t7,v0,40361c <_nl_load_domain+0x4ec>
  403bcc:	01401025 	move	v0,t2
  403bd0:	24020078 	li	v0,120
  403bd4:	11e2fe91 	beq	t7,v0,40361c <_nl_load_domain+0x4ec>
  403bd8:	01201025 	move	v0,t1
  403bdc:	24020058 	li	v0,88
  403be0:	15e202fc 	bne	t7,v0,4047d4 <_nl_load_domain+0x16a4>
  403be4:	01001025 	move	v0,t0
  403be8:	1000fe8d 	b	403620 <_nl_load_domain+0x4f0>
  403bec:	24a50001 	addiu	a1,a1,1
  403bf0:	80590005 	lb	t9,5(v0)
  403bf4:	24180036 	li	t8,54
  403bf8:	13380141 	beq	t9,t8,404100 <_nl_load_domain+0xfd0>
  403bfc:	00000000 	nop
  403c00:	1000fe86 	b	40361c <_nl_load_domain+0x4ec>
  403c04:	00001025 	move	v0,zero
  403c08:	8fb50048 	lw	s5,72(sp)
  403c0c:	8fb7006c 	lw	s7,108(sp)
  403c10:	8fbe0064 	lw	s8,100(sp)
  403c14:	14400016 	bnez	v0,403c70 <_nl_load_domain+0xb40>
  403c18:	8fb00068 	lw	s0,104(sp)
  403c1c:	afc00020 	sw	zero,32(s8)
  403c20:	afc00024 	sw	zero,36(s8)
  403c24:	afc00028 	sw	zero,40(s8)
  403c28:	8f998054 	lw	t9,-32684(gp)
  403c2c:	041150b1 	bal	417ef4 <__free>
  403c30:	8fa4004c 	lw	a0,76(sp)
  403c34:	1000fdbd 	b	40332c <_nl_load_domain+0x1fc>
  403c38:	8fbc0018 	lw	gp,24(sp)
  403c3c:	171901e7 	bne	t8,t9,4043dc <_nl_load_domain+0x12ac>
  403c40:	24180054 	li	t8,84
  403c44:	80590005 	lb	t9,5(v0)
  403c48:	1338018c 	beq	t9,t8,40427c <_nl_load_domain+0x114c>
  403c4c:	24180052 	li	t8,82
  403c50:	1000fe72 	b	40361c <_nl_load_domain+0x4ec>
  403c54:	00001025 	move	v0,zero
  403c58:	041150a6 	bal	417ef4 <__free>
  403c5c:	02a02025 	move	a0,s5
  403c60:	8e820004 	lw	v0,4(s4)
  403c64:	8fbc0018 	lw	gp,24(sp)
  403c68:	1000fdce 	b	4033a4 <_nl_load_domain+0x274>
  403c6c:	2442ffff 	addiu	v0,v0,-1
  403c70:	00022100 	sll	a0,v0,0x4
  403c74:	8fa20060 	lw	v0,96(sp)
  403c78:	8f9980cc 	lw	t9,-32564(gp)
  403c7c:	04114ed0 	bal	4177c0 <__libc_malloc>
  403c80:	00822021 	addu	a0,a0,v0
  403c84:	8fbc0018 	lw	gp,24(sp)
  403c88:	1040fe1e 	beqz	v0,403504 <_nl_load_domain+0x3d4>
  403c8c:	afa20040 	sw	v0,64(sp)
  403c90:	8fa2005c 	lw	v0,92(sp)
  403c94:	8fa30040 	lw	v1,64(sp)
  403c98:	8fae0058 	lw	t6,88(sp)
  403c9c:	000258c0 	sll	t3,v0,0x3
  403ca0:	8fa20038 	lw	v0,56(sp)
  403ca4:	afc30010 	sw	v1,16(s8)
  403ca8:	006b1821 	addu	v1,v1,t3
  403cac:	afa0003c 	sw	zero,60(sp)
  403cb0:	00021080 	sll	v0,v0,0x2
  403cb4:	afb70078 	sw	s7,120(sp)
  403cb8:	006b5821 	addu	t3,v1,t3
  403cbc:	afa30064 	sw	v1,100(sp)
  403cc0:	8fa30070 	lw	v1,112(sp)
  403cc4:	01c21021 	addu	v0,t6,v0
  403cc8:	afab007c 	sw	t3,124(sp)
  403ccc:	afa2006c 	sw	v0,108(sp)
  403cd0:	3c020042 	lui	v0,0x42
  403cd4:	01639021 	addu	s2,t3,v1
  403cd8:	afb00080 	sw	s0,128(sp)
  403cdc:	8fab0074 	lw	t3,116(sp)
  403ce0:	24429d50 	addiu	v0,v0,-25264
  403ce4:	afbe0074 	sw	s8,116(sp)
  403ce8:	0260f025 	move	s8,s3
  403cec:	02a09825 	move	s3,s5
  403cf0:	afa20044 	sw	v0,68(sp)
  403cf4:	0240a825 	move	s5,s2
  403cf8:	8fb2004c 	lw	s2,76(sp)
  403cfc:	3c049504 	lui	a0,0x9504
  403d00:	00004825 	move	t1,zero
  403d04:	248412de 	addiu	a0,a0,4830
  403d08:	2405ffff 	li	a1,-1
  403d0c:	24060001 	li	a2,1
  403d10:	13c40078 	beq	s8,a0,403ef4 <_nl_load_domain+0xdc4>
  403d14:	00000000 	nop
  403d18:	112000e8 	beqz	t1,4040bc <_nl_load_domain+0xf8c>
  403d1c:	00000000 	nop
  403d20:	8d630000 	lw	v1,0(t3)
  403d24:	7c0318a0 	wsbh	v1,v1
  403d28:	00231c02 	ror	v1,v1,0x10
  403d2c:	02631821 	addu	v1,s3,v1
  403d30:	8c620008 	lw	v0,8(v1)
  403d34:	7c0210a0 	wsbh	v0,v0
  403d38:	00221402 	ror	v0,v0,0x10
  403d3c:	24420001 	addiu	v0,v0,1
  403d40:	0002102b 	sltu	v0,zero,v0
  403d44:	14400075 	bnez	v0,403f1c <_nl_load_domain+0xdec>
  403d48:	00000000 	nop
  403d4c:	15260071 	bne	t1,a2,403f14 <_nl_load_domain+0xde4>
  403d50:	8fa2003c 	lw	v0,60(sp)
  403d54:	3c179504 	lui	s7,0x9504
  403d58:	8fa30040 	lw	v1,64(sp)
  403d5c:	26f712de 	addiu	s7,s7,4830
  403d60:	afa00038 	sw	zero,56(sp)
  403d64:	000210c0 	sll	v0,v0,0x3
  403d68:	afb20034 	sw	s2,52(sp)
  403d6c:	afab0048 	sw	t3,72(sp)
  403d70:	00621821 	addu	v1,v1,v0
  403d74:	afae0050 	sw	t6,80(sp)
  403d78:	afa90070 	sw	t1,112(sp)
  403d7c:	afa30060 	sw	v1,96(sp)
  403d80:	8fa30064 	lw	v1,100(sp)
  403d84:	00621021 	addu	v0,v1,v0
  403d88:	afa20058 	sw	v0,88(sp)
  403d8c:	13d70020 	beq	s8,s7,403e10 <_nl_load_domain+0xce0>
  403d90:	8fa20038 	lw	v0,56(sp)
  403d94:	104000f6 	beqz	v0,404170 <_nl_load_domain+0x1040>
  403d98:	8fa20050 	lw	v0,80(sp)
  403d9c:	8fa20048 	lw	v0,72(sp)
  403da0:	8c470000 	lw	a3,0(v0)
  403da4:	8fa20058 	lw	v0,88(sp)
  403da8:	7c0738a0 	wsbh	a3,a3
  403dac:	afa20068 	sw	v0,104(sp)
  403db0:	2404ffff 	li	a0,-1
  403db4:	00273c02 	ror	a3,a3,0x10
  403db8:	02673821 	addu	a3,s3,a3
  403dbc:	8cf00000 	lw	s0,0(a3)
  403dc0:	8ce30008 	lw	v1,8(a3)
  403dc4:	8ce20004 	lw	v0,4(a3)
  403dc8:	7c1080a0 	wsbh	s0,s0
  403dcc:	7c0318a0 	wsbh	v1,v1
  403dd0:	00308402 	ror	s0,s0,0x10
  403dd4:	00231c02 	ror	v1,v1,0x10
  403dd8:	1464001a 	bne	v1,a0,403e44 <_nl_load_domain+0xd14>
  403ddc:	02708021 	addu	s0,s3,s0
  403de0:	7c0210a0 	wsbh	v0,v0
  403de4:	00221402 	ror	v0,v0,0x10
  403de8:	8fa30068 	lw	v1,104(sp)
  403dec:	ac620000 	sw	v0,0(v1)
  403df0:	ac700004 	sw	s0,4(v1)
  403df4:	8fa30038 	lw	v1,56(sp)
  403df8:	24020001 	li	v0,1
  403dfc:	106200b3 	beq	v1,v0,4040cc <_nl_load_domain+0xf9c>
  403e00:	8fa20070 	lw	v0,112(sp)
  403e04:	afa20038 	sw	v0,56(sp)
  403e08:	17d7ffe2 	bne	s8,s7,403d94 <_nl_load_domain+0xc64>
  403e0c:	8fa20038 	lw	v0,56(sp)
  403e10:	104000fb 	beqz	v0,404200 <_nl_load_domain+0x10d0>
  403e14:	00000000 	nop
  403e18:	8fa20048 	lw	v0,72(sp)
  403e1c:	8c470000 	lw	a3,0(v0)
  403e20:	8fa20058 	lw	v0,88(sp)
  403e24:	02673821 	addu	a3,s3,a3
  403e28:	afa20068 	sw	v0,104(sp)
  403e2c:	8cf00000 	lw	s0,0(a3)
  403e30:	02708021 	addu	s0,s3,s0
  403e34:	8ce30008 	lw	v1,8(a3)
  403e38:	2404ffff 	li	a0,-1
  403e3c:	1064ffea 	beq	v1,a0,403de8 <_nl_load_domain+0xcb8>
  403e40:	8ce20004 	lw	v0,4(a3)
  403e44:	8fa20068 	lw	v0,104(sp)
  403e48:	24f20004 	addiu	s2,a3,4
  403e4c:	afb30084 	sw	s3,132(sp)
  403e50:	02409825 	move	s3,s2
  403e54:	02009025 	move	s2,s0
  403e58:	10000015 	b	403eb0 <_nl_load_domain+0xd80>
  403e5c:	ac550004 	sw	s5,4(v0)
  403e60:	2402ffff 	li	v0,-1
  403e64:	120200a0 	beq	s0,v0,4040e8 <_nl_load_domain+0xfb8>
  403e68:	8fa30034 	lw	v1,52(sp)
  403e6c:	00101080 	sll	v0,s0,0x2
  403e70:	8fb90044 	lw	t9,68(sp)
  403e74:	26730008 	addiu	s3,s3,8
  403e78:	00621021 	addu	v0,v1,v0
  403e7c:	8c450000 	lw	a1,0(v0)
  403e80:	00a02025 	move	a0,a1
  403e84:	0320f809 	jalr	t9
  403e88:	afa50030 	sw	a1,48(sp)
  403e8c:	02a02025 	move	a0,s5
  403e90:	8fbc0018 	lw	gp,24(sp)
  403e94:	00403025 	move	a2,v0
  403e98:	8fa50030 	lw	a1,48(sp)
  403e9c:	00408025 	move	s0,v0
  403ea0:	8f99809c 	lw	t9,-32612(gp)
  403ea4:	04115c06 	bal	41aec0 <memcpy>
  403ea8:	02b0a821 	addu	s5,s5,s0
  403eac:	8fbc0018 	lw	gp,24(sp)
  403eb0:	8e660000 	lw	a2,0(s3)
  403eb4:	13d70005 	beq	s8,s7,403ecc <_nl_load_domain+0xd9c>
  403eb8:	8e700004 	lw	s0,4(s3)
  403ebc:	7c0630a0 	wsbh	a2,a2
  403ec0:	7c1080a0 	wsbh	s0,s0
  403ec4:	00263402 	ror	a2,a2,0x10
  403ec8:	00308402 	ror	s0,s0,0x10
  403ecc:	10c0ffe5 	beqz	a2,403e64 <_nl_load_domain+0xd34>
  403ed0:	2402ffff 	li	v0,-1
  403ed4:	8f99809c 	lw	t9,-32612(gp)
  403ed8:	02402825 	move	a1,s2
  403edc:	02a02025 	move	a0,s5
  403ee0:	02469021 	addu	s2,s2,a2
  403ee4:	04115bf6 	bal	41aec0 <memcpy>
  403ee8:	02a6a821 	addu	s5,s5,a2
  403eec:	1000ffdc 	b	403e60 <_nl_load_domain+0xd30>
  403ef0:	8fbc0018 	lw	gp,24(sp)
  403ef4:	11200073 	beqz	t1,4040c4 <_nl_load_domain+0xf94>
  403ef8:	00000000 	nop
  403efc:	8d630000 	lw	v1,0(t3)
  403f00:	02631821 	addu	v1,s3,v1
  403f04:	8c620008 	lw	v0,8(v1)
  403f08:	24420001 	addiu	v0,v0,1
  403f0c:	1000ff8d 	b	403d44 <_nl_load_domain+0xc14>
  403f10:	0002102b 	sltu	v0,zero,v0
  403f14:	1000ff7e 	b	403d10 <_nl_load_domain+0xbe0>
  403f18:	24090001 	li	t1,1
  403f1c:	10000001 	b	403f24 <_nl_load_domain+0xdf4>
  403f20:	24630004 	addiu	v1,v1,4
  403f24:	13c40003 	beq	s8,a0,403f34 <_nl_load_domain+0xe04>
  403f28:	8c620004 	lw	v0,4(v1)
  403f2c:	7c0210a0 	wsbh	v0,v0
  403f30:	00221402 	ror	v0,v0,0x10
  403f34:	1045ff85 	beq	v0,a1,403d4c <_nl_load_domain+0xc1c>
  403f38:	00021080 	sll	v0,v0,0x2
  403f3c:	02421021 	addu	v0,s2,v0
  403f40:	8c420000 	lw	v0,0(v0)
  403f44:	1440fff7 	bnez	v0,403f24 <_nl_load_domain+0xdf4>
  403f48:	24630008 	addiu	v1,v1,8
  403f4c:	2463fff8 	addiu	v1,v1,-8
  403f50:	8fa2006c 	lw	v0,108(sp)
  403f54:	25ce0004 	addiu	t6,t6,4
  403f58:	144eff68 	bne	v0,t6,403cfc <_nl_load_domain+0xbcc>
  403f5c:	256b0004 	addiu	t3,t3,4
  403f60:	8fa2005c 	lw	v0,92(sp)
  403f64:	0260a825 	move	s5,s3
  403f68:	8fa3003c 	lw	v1,60(sp)
  403f6c:	03c09825 	move	s3,s8
  403f70:	8fb70078 	lw	s7,120(sp)
  403f74:	8fab007c 	lw	t3,124(sp)
  403f78:	8fbe0074 	lw	s8,116(sp)
  403f7c:	14430215 	bne	v0,v1,4047d4 <_nl_load_domain+0x16a4>
  403f80:	8fb00080 	lw	s0,128(sp)
  403f84:	3c0c9504 	lui	t4,0x9504
  403f88:	8fa50054 	lw	a1,84(sp)
  403f8c:	00003025 	move	a2,zero
  403f90:	258c12de 	addiu	t4,t4,4830
  403f94:	01602025 	move	a0,t3
  403f98:	126c0003 	beq	s3,t4,403fa8 <_nl_load_domain+0xe78>
  403f9c:	8ca20000 	lw	v0,0(a1)
  403fa0:	7c0210a0 	wsbh	v0,v0
  403fa4:	00221402 	ror	v0,v0,0x10
  403fa8:	24c60001 	addiu	a2,a2,1
  403fac:	ac820000 	sw	v0,0(a0)
  403fb0:	24a50004 	addiu	a1,a1,4
  403fb4:	00d7102b 	sltu	v0,a2,s7
  403fb8:	1440fff7 	bnez	v0,403f98 <_nl_load_domain+0xe68>
  403fbc:	24840004 	addiu	a0,a0,4
  403fc0:	8fa20040 	lw	v0,64(sp)
  403fc4:	3c120040 	lui	s2,0x40
  403fc8:	00009825 	move	s3,zero
  403fcc:	afb00034 	sw	s0,52(sp)
  403fd0:	afb50030 	sw	s5,48(sp)
  403fd4:	26526720 	addiu	s2,s2,26400
  403fd8:	24570004 	addiu	s7,v0,4
  403fdc:	8fb0005c 	lw	s0,92(sp)
  403fe0:	03c01025 	move	v0,s8
  403fe4:	02e0a825 	move	s5,s7
  403fe8:	0260f025 	move	s8,s3
  403fec:	0160b825 	move	s7,t3
  403ff0:	00409825 	move	s3,v0
  403ff4:	0240c825 	move	t9,s2
  403ff8:	041109c9 	bal	406720 <__hash_string>
  403ffc:	8ea40000 	lw	a0,0(s5)
  404000:	8e66002c 	lw	a2,44(s3)
  404004:	8fbc0018 	lw	gp,24(sp)
  404008:	00c001f4 	teq	a2,zero,0x7
  40400c:	0046001b 	divu	zero,v0,a2
  404010:	24c4fffe 	addiu	a0,a2,-2
  404014:	00001810 	mfhi	v1
  404018:	008001f4 	teq	a0,zero,0x7
  40401c:	0044001b 	divu	zero,v0,a0
  404020:	00031080 	sll	v0,v1,0x2
  404024:	02e21021 	addu	v0,s7,v0
  404028:	8c440000 	lw	a0,0(v0)
  40402c:	00002810 	mfhi	a1
  404030:	1080000f 	beqz	a0,404070 <_nl_load_domain+0xf40>
  404034:	24a50001 	addiu	a1,a1,1
  404038:	00c54823 	subu	t1,a2,a1
  40403c:	10000007 	b	40405c <_nl_load_domain+0xf2c>
  404040:	00a63023 	subu	a2,a1,a2
  404044:	00661821 	addu	v1,v1,a2
  404048:	00031080 	sll	v0,v1,0x2
  40404c:	02e21021 	addu	v0,s7,v0
  404050:	8c440000 	lw	a0,0(v0)
  404054:	10800006 	beqz	a0,404070 <_nl_load_domain+0xf40>
  404058:	00000000 	nop
  40405c:	0069102b 	sltu	v0,v1,t1
  404060:	1040fff8 	beqz	v0,404044 <_nl_load_domain+0xf14>
  404064:	00000000 	nop
  404068:	1000fff7 	b	404048 <_nl_load_domain+0xf18>
  40406c:	00651821 	addu	v1,v1,a1
  404070:	8e630014 	lw	v1,20(s3)
  404074:	26b50008 	addiu	s5,s5,8
  404078:	24630001 	addiu	v1,v1,1
  40407c:	007e1821 	addu	v1,v1,s8
  404080:	27de0001 	addiu	s8,s8,1
  404084:	161effdb 	bne	s0,s8,403ff4 <_nl_load_domain+0xec4>
  404088:	ac430000 	sw	v1,0(v0)
  40408c:	8fa2005c 	lw	v0,92(sp)
  404090:	0260f025 	move	s8,s3
  404094:	8fb50030 	lw	s5,48(sp)
  404098:	8fb00034 	lw	s0,52(sp)
  40409c:	ae620020 	sw	v0,32(s3)
  4040a0:	8fa20040 	lw	v0,64(sp)
  4040a4:	ae770030 	sw	s7,48(s3)
  4040a8:	ae600034 	sw	zero,52(s3)
  4040ac:	ae620024 	sw	v0,36(s3)
  4040b0:	8fa20064 	lw	v0,100(sp)
  4040b4:	1000fedc 	b	403c28 <_nl_load_domain+0xaf8>
  4040b8:	ae620028 	sw	v0,40(s3)
  4040bc:	1000ff19 	b	403d24 <_nl_load_domain+0xbf4>
  4040c0:	8dc30000 	lw	v1,0(t6)
  4040c4:	1000ff8e 	b	403f00 <_nl_load_domain+0xdd0>
  4040c8:	8dc30000 	lw	v1,0(t6)
  4040cc:	8fa2003c 	lw	v0,60(sp)
  4040d0:	8fb20034 	lw	s2,52(sp)
  4040d4:	8fab0048 	lw	t3,72(sp)
  4040d8:	24420001 	addiu	v0,v0,1
  4040dc:	8fae0050 	lw	t6,80(sp)
  4040e0:	1000ff9b 	b	403f50 <_nl_load_domain+0xe20>
  4040e4:	afa2003c 	sw	v0,60(sp)
  4040e8:	8fa30068 	lw	v1,104(sp)
  4040ec:	8fb30084 	lw	s3,132(sp)
  4040f0:	8c620004 	lw	v0,4(v1)
  4040f4:	02a21023 	subu	v0,s5,v0
  4040f8:	1000ff3e 	b	403df4 <_nl_load_domain+0xcc4>
  4040fc:	ac620000 	sw	v0,0(v1)
  404100:	80420006 	lb	v0,6(v0)
  404104:	1440fd45 	bnez	v0,40361c <_nl_load_domain+0x4ec>
  404108:	00001025 	move	v0,zero
  40410c:	24020064 	li	v0,100
  404110:	11e2fd42 	beq	t7,v0,40361c <_nl_load_domain+0x4ec>
  404114:	01c01025 	move	v0,t6
  404118:	24020069 	li	v0,105
  40411c:	11e2fd3f 	beq	t7,v0,40361c <_nl_load_domain+0x4ec>
  404120:	01a01025 	move	v0,t5
  404124:	2402006f 	li	v0,111
  404128:	11e2fd3c 	beq	t7,v0,40361c <_nl_load_domain+0x4ec>
  40412c:	00601025 	move	v0,v1
  404130:	24020075 	li	v0,117
  404134:	11e2fd39 	beq	t7,v0,40361c <_nl_load_domain+0x4ec>
  404138:	01401025 	move	v0,t2
  40413c:	24020078 	li	v0,120
  404140:	11e2fd36 	beq	t7,v0,40361c <_nl_load_domain+0x4ec>
  404144:	01201025 	move	v0,t1
  404148:	24020058 	li	v0,88
  40414c:	15e201a1 	bne	t7,v0,4047d4 <_nl_load_domain+0x16a4>
  404150:	01001025 	move	v0,t0
  404154:	1000fd32 	b	403620 <_nl_load_domain+0x4f0>
  404158:	24a50001 	addiu	a1,a1,1
  40415c:	80590006 	lb	t9,6(v0)
  404160:	13380054 	beq	t9,t8,4042b4 <_nl_load_domain+0x1184>
  404164:	00000000 	nop
  404168:	1000fd2c 	b	40361c <_nl_load_domain+0x4ec>
  40416c:	00001025 	move	v0,zero
  404170:	8c470000 	lw	a3,0(v0)
  404174:	1000ff0c 	b	403da8 <_nl_load_domain+0xc78>
  404178:	8fa20060 	lw	v0,96(sp)
  40417c:	80590006 	lb	t9,6(v0)
  404180:	13380047 	beq	t9,t8,4042a0 <_nl_load_domain+0x1170>
  404184:	24180053 	li	t8,83
  404188:	1000fd24 	b	40361c <_nl_load_domain+0x4ec>
  40418c:	00001025 	move	v0,zero
  404190:	80590006 	lb	t9,6(v0)
  404194:	13380075 	beq	t9,t8,40436c <_nl_load_domain+0x123c>
  404198:	24180054 	li	t8,84
  40419c:	1000fd1f 	b	40361c <_nl_load_domain+0x4ec>
  4041a0:	00001025 	move	v0,zero
  4041a4:	80420006 	lb	v0,6(v0)
  4041a8:	1440fd1c 	bnez	v0,40361c <_nl_load_domain+0x4ec>
  4041ac:	00001025 	move	v0,zero
  4041b0:	24020064 	li	v0,100
  4041b4:	11e2fd19 	beq	t7,v0,40361c <_nl_load_domain+0x4ec>
  4041b8:	01c01025 	move	v0,t6
  4041bc:	24020069 	li	v0,105
  4041c0:	11e2fd16 	beq	t7,v0,40361c <_nl_load_domain+0x4ec>
  4041c4:	01a01025 	move	v0,t5
  4041c8:	2402006f 	li	v0,111
  4041cc:	11e2fd13 	beq	t7,v0,40361c <_nl_load_domain+0x4ec>
  4041d0:	00601025 	move	v0,v1
  4041d4:	24020075 	li	v0,117
  4041d8:	11e2fd10 	beq	t7,v0,40361c <_nl_load_domain+0x4ec>
  4041dc:	01401025 	move	v0,t2
  4041e0:	24020078 	li	v0,120
  4041e4:	11e2fd0d 	beq	t7,v0,40361c <_nl_load_domain+0x4ec>
  4041e8:	01201025 	move	v0,t1
  4041ec:	24020058 	li	v0,88
  4041f0:	15e20178 	bne	t7,v0,4047d4 <_nl_load_domain+0x16a4>
  4041f4:	01001025 	move	v0,t0
  4041f8:	1000fd09 	b	403620 <_nl_load_domain+0x4f0>
  4041fc:	24a50001 	addiu	a1,a1,1
  404200:	8fa20050 	lw	v0,80(sp)
  404204:	8c470000 	lw	a3,0(v0)
  404208:	8fa20060 	lw	v0,96(sp)
  40420c:	02673821 	addu	a3,s3,a3
  404210:	afa20068 	sw	v0,104(sp)
  404214:	8cf00000 	lw	s0,0(a3)
  404218:	1000ff06 	b	403e34 <_nl_load_domain+0xd04>
  40421c:	02708021 	addu	s0,s3,s0
  404220:	80420006 	lb	v0,6(v0)
  404224:	1440fcfd 	bnez	v0,40361c <_nl_load_domain+0x4ec>
  404228:	00001025 	move	v0,zero
  40422c:	24020064 	li	v0,100
  404230:	11e2fcfa 	beq	t7,v0,40361c <_nl_load_domain+0x4ec>
  404234:	00e01025 	move	v0,a3
  404238:	24020069 	li	v0,105
  40423c:	11e2fcf7 	beq	t7,v0,40361c <_nl_load_domain+0x4ec>
  404240:	00c01025 	move	v0,a2
  404244:	2402006f 	li	v0,111
  404248:	11e2fcf4 	beq	t7,v0,40361c <_nl_load_domain+0x4ec>
  40424c:	03e01025 	move	v0,ra
  404250:	24020075 	li	v0,117
  404254:	11e2015d 	beq	t7,v0,4047cc <_nl_load_domain+0x169c>
  404258:	8fa20030 	lw	v0,48(sp)
  40425c:	24020078 	li	v0,120
  404260:	11e20158 	beq	t7,v0,4047c4 <_nl_load_domain+0x1694>
  404264:	3c020046 	lui	v0,0x46
  404268:	24020058 	li	v0,88
  40426c:	15e20159 	bne	t7,v0,4047d4 <_nl_load_domain+0x16a4>
  404270:	3c020046 	lui	v0,0x46
  404274:	1000fce9 	b	40361c <_nl_load_domain+0x4ec>
  404278:	24425598 	addiu	v0,v0,21912
  40427c:	80590006 	lb	t9,6(v0)
  404280:	13380023 	beq	t9,t8,404310 <_nl_load_domain+0x11e0>
  404284:	00000000 	nop
  404288:	1000fce4 	b	40361c <_nl_load_domain+0x4ec>
  40428c:	00001025 	move	v0,zero
  404290:	04116c4b 	bal	41f3c0 <__stack_chk_fail>
  404294:	00000000 	nop
  404298:	1000fce0 	b	40361c <_nl_load_domain+0x4ec>
  40429c:	00001025 	move	v0,zero
  4042a0:	80590007 	lb	t9,7(v0)
  4042a4:	13380036 	beq	t9,t8,404380 <_nl_load_domain+0x1250>
  4042a8:	24180054 	li	t8,84
  4042ac:	1000fcdb 	b	40361c <_nl_load_domain+0x4ec>
  4042b0:	00001025 	move	v0,zero
  4042b4:	80420007 	lb	v0,7(v0)
  4042b8:	1440fcd8 	bnez	v0,40361c <_nl_load_domain+0x4ec>
  4042bc:	00001025 	move	v0,zero
  4042c0:	24020064 	li	v0,100
  4042c4:	11e2fcd5 	beq	t7,v0,40361c <_nl_load_domain+0x4ec>
  4042c8:	00e01025 	move	v0,a3
  4042cc:	24020069 	li	v0,105
  4042d0:	11e2fcd2 	beq	t7,v0,40361c <_nl_load_domain+0x4ec>
  4042d4:	00c01025 	move	v0,a2
  4042d8:	2402006f 	li	v0,111
  4042dc:	11e2fccf 	beq	t7,v0,40361c <_nl_load_domain+0x4ec>
  4042e0:	03e01025 	move	v0,ra
  4042e4:	24020075 	li	v0,117
  4042e8:	11e20134 	beq	t7,v0,4047bc <_nl_load_domain+0x168c>
  4042ec:	8fa20030 	lw	v0,48(sp)
  4042f0:	24020078 	li	v0,120
  4042f4:	11e2012f 	beq	t7,v0,4047b4 <_nl_load_domain+0x1684>
  4042f8:	3c020046 	lui	v0,0x46
  4042fc:	24020058 	li	v0,88
  404300:	15e20134 	bne	t7,v0,4047d4 <_nl_load_domain+0x16a4>
  404304:	3c020046 	lui	v0,0x46
  404308:	1000fcc4 	b	40361c <_nl_load_domain+0x4ec>
  40430c:	24425598 	addiu	v0,v0,21912
  404310:	80420007 	lb	v0,7(v0)
  404314:	1440fcc1 	bnez	v0,40361c <_nl_load_domain+0x4ec>
  404318:	00001025 	move	v0,zero
  40431c:	24020064 	li	v0,100
  404320:	11e2fcbe 	beq	t7,v0,40361c <_nl_load_domain+0x4ec>
  404324:	01c01025 	move	v0,t6
  404328:	24020069 	li	v0,105
  40432c:	11e2fcbb 	beq	t7,v0,40361c <_nl_load_domain+0x4ec>
  404330:	01a01025 	move	v0,t5
  404334:	2402006f 	li	v0,111
  404338:	11e2fcb8 	beq	t7,v0,40361c <_nl_load_domain+0x4ec>
  40433c:	00601025 	move	v0,v1
  404340:	24020075 	li	v0,117
  404344:	11e2fcb5 	beq	t7,v0,40361c <_nl_load_domain+0x4ec>
  404348:	01401025 	move	v0,t2
  40434c:	24020078 	li	v0,120
  404350:	11e2fcb2 	beq	t7,v0,40361c <_nl_load_domain+0x4ec>
  404354:	01201025 	move	v0,t1
  404358:	24020058 	li	v0,88
  40435c:	15e2011d 	bne	t7,v0,4047d4 <_nl_load_domain+0x16a4>
  404360:	01001025 	move	v0,t0
  404364:	1000fcae 	b	403620 <_nl_load_domain+0x4f0>
  404368:	24a50001 	addiu	a1,a1,1
  40436c:	80590007 	lb	t9,7(v0)
  404370:	1338000c 	beq	t9,t8,4043a4 <_nl_load_domain+0x1274>
  404374:	00000000 	nop
  404378:	1000fca8 	b	40361c <_nl_load_domain+0x4ec>
  40437c:	00001025 	move	v0,zero
  404380:	80590008 	lb	t9,8(v0)
  404384:	1338008c 	beq	t9,t8,4045b8 <_nl_load_domain+0x1488>
  404388:	00000000 	nop
  40438c:	1000fca3 	b	40361c <_nl_load_domain+0x4ec>
  404390:	00001025 	move	v0,zero
  404394:	1000fca1 	b	40361c <_nl_load_domain+0x4ec>
  404398:	00601025 	move	v0,v1
  40439c:	1000fc9f 	b	40361c <_nl_load_domain+0x4ec>
  4043a0:	00001025 	move	v0,zero
  4043a4:	80580008 	lb	t8,8(v0)
  4043a8:	24190038 	li	t9,56
  4043ac:	1319004e 	beq	t8,t9,4044e8 <_nl_load_domain+0x13b8>
  4043b0:	24190031 	li	t9,49
  4043b4:	13190046 	beq	t8,t9,4044d0 <_nl_load_domain+0x13a0>
  4043b8:	24190033 	li	t9,51
  4043bc:	17190020 	bne	t8,t9,404440 <_nl_load_domain+0x1310>
  4043c0:	24190036 	li	t9,54
  4043c4:	80590009 	lb	t9,9(v0)
  4043c8:	24180032 	li	t8,50
  4043cc:	13380005 	beq	t9,t8,4043e4 <_nl_load_domain+0x12b4>
  4043d0:	00000000 	nop
  4043d4:	1000fc91 	b	40361c <_nl_load_domain+0x4ec>
  4043d8:	00001025 	move	v0,zero
  4043dc:	1000fc8f 	b	40361c <_nl_load_domain+0x4ec>
  4043e0:	00001025 	move	v0,zero
  4043e4:	8042000a 	lb	v0,10(v0)
  4043e8:	1440fc8c 	bnez	v0,40361c <_nl_load_domain+0x4ec>
  4043ec:	00001025 	move	v0,zero
  4043f0:	24020064 	li	v0,100
  4043f4:	11e2fc89 	beq	t7,v0,40361c <_nl_load_domain+0x4ec>
  4043f8:	01c01025 	move	v0,t6
  4043fc:	24020069 	li	v0,105
  404400:	11e2fc86 	beq	t7,v0,40361c <_nl_load_domain+0x4ec>
  404404:	01a01025 	move	v0,t5
  404408:	2402006f 	li	v0,111
  40440c:	11e2fc83 	beq	t7,v0,40361c <_nl_load_domain+0x4ec>
  404410:	00601025 	move	v0,v1
  404414:	24020075 	li	v0,117
  404418:	11e2fc80 	beq	t7,v0,40361c <_nl_load_domain+0x4ec>
  40441c:	01401025 	move	v0,t2
  404420:	24020078 	li	v0,120
  404424:	11e2fc7d 	beq	t7,v0,40361c <_nl_load_domain+0x4ec>
  404428:	01201025 	move	v0,t1
  40442c:	24020058 	li	v0,88
  404430:	15e200e8 	bne	t7,v0,4047d4 <_nl_load_domain+0x16a4>
  404434:	01001025 	move	v0,t0
  404438:	1000fc79 	b	403620 <_nl_load_domain+0x4f0>
  40443c:	24a50001 	addiu	a1,a1,1
  404440:	1719001d 	bne	t8,t9,4044b8 <_nl_load_domain+0x1388>
  404444:	24180034 	li	t8,52
  404448:	80590009 	lb	t9,9(v0)
  40444c:	13380003 	beq	t9,t8,40445c <_nl_load_domain+0x132c>
  404450:	00000000 	nop
  404454:	1000fc71 	b	40361c <_nl_load_domain+0x4ec>
  404458:	00001025 	move	v0,zero
  40445c:	8042000a 	lb	v0,10(v0)
  404460:	1440fc6e 	bnez	v0,40361c <_nl_load_domain+0x4ec>
  404464:	00001025 	move	v0,zero
  404468:	24020064 	li	v0,100
  40446c:	11e2fc6b 	beq	t7,v0,40361c <_nl_load_domain+0x4ec>
  404470:	00e01025 	move	v0,a3
  404474:	24020069 	li	v0,105
  404478:	11e2fc68 	beq	t7,v0,40361c <_nl_load_domain+0x4ec>
  40447c:	00c01025 	move	v0,a2
  404480:	2402006f 	li	v0,111
  404484:	11e2fc65 	beq	t7,v0,40361c <_nl_load_domain+0x4ec>
  404488:	03e01025 	move	v0,ra
  40448c:	24020075 	li	v0,117
  404490:	11e2000d 	beq	t7,v0,4044c8 <_nl_load_domain+0x1398>
  404494:	8fa20030 	lw	v0,48(sp)
  404498:	24020078 	li	v0,120
  40449c:	11e20008 	beq	t7,v0,4044c0 <_nl_load_domain+0x1390>
  4044a0:	3c020046 	lui	v0,0x46
  4044a4:	24020058 	li	v0,88
  4044a8:	15e200ca 	bne	t7,v0,4047d4 <_nl_load_domain+0x16a4>
  4044ac:	3c020046 	lui	v0,0x46
  4044b0:	1000fc5a 	b	40361c <_nl_load_domain+0x4ec>
  4044b4:	24425598 	addiu	v0,v0,21912
  4044b8:	1000fc58 	b	40361c <_nl_load_domain+0x4ec>
  4044bc:	00001025 	move	v0,zero
  4044c0:	1000fc56 	b	40361c <_nl_load_domain+0x4ec>
  4044c4:	2442559c 	addiu	v0,v0,21916
  4044c8:	1000fc54 	b	40361c <_nl_load_domain+0x4ec>
  4044cc:	2442558c 	addiu	v0,v0,21900
  4044d0:	80590009 	lb	t9,9(v0)
  4044d4:	24180036 	li	t8,54
  4044d8:	1338001a 	beq	t9,t8,404544 <_nl_load_domain+0x1414>
  4044dc:	00000000 	nop
  4044e0:	1000fc4e 	b	40361c <_nl_load_domain+0x4ec>
  4044e4:	00001025 	move	v0,zero
  4044e8:	80420009 	lb	v0,9(v0)
  4044ec:	1440fc4b 	bnez	v0,40361c <_nl_load_domain+0x4ec>
  4044f0:	00001025 	move	v0,zero
  4044f4:	24020064 	li	v0,100
  4044f8:	11e2fc48 	beq	t7,v0,40361c <_nl_load_domain+0x4ec>
  4044fc:	01c01025 	move	v0,t6
  404500:	24020069 	li	v0,105
  404504:	11e2fc45 	beq	t7,v0,40361c <_nl_load_domain+0x4ec>
  404508:	01a01025 	move	v0,t5
  40450c:	2402006f 	li	v0,111
  404510:	11e2fc42 	beq	t7,v0,40361c <_nl_load_domain+0x4ec>
  404514:	00601025 	move	v0,v1
  404518:	24020075 	li	v0,117
  40451c:	11e2fc3f 	beq	t7,v0,40361c <_nl_load_domain+0x4ec>
  404520:	01401025 	move	v0,t2
  404524:	24020078 	li	v0,120
  404528:	11e2fc3c 	beq	t7,v0,40361c <_nl_load_domain+0x4ec>
  40452c:	01201025 	move	v0,t1
  404530:	24020058 	li	v0,88
  404534:	15e200a7 	bne	t7,v0,4047d4 <_nl_load_domain+0x16a4>
  404538:	01001025 	move	v0,t0
  40453c:	1000fc38 	b	403620 <_nl_load_domain+0x4f0>
  404540:	24a50001 	addiu	a1,a1,1
  404544:	8042000a 	lb	v0,10(v0)
  404548:	1440fc34 	bnez	v0,40361c <_nl_load_domain+0x4ec>
  40454c:	00001025 	move	v0,zero
  404550:	24020064 	li	v0,100
  404554:	11e2fc31 	beq	t7,v0,40361c <_nl_load_domain+0x4ec>
  404558:	01c01025 	move	v0,t6
  40455c:	24020069 	li	v0,105
  404560:	11e2fc2e 	beq	t7,v0,40361c <_nl_load_domain+0x4ec>
  404564:	01a01025 	move	v0,t5
  404568:	2402006f 	li	v0,111
  40456c:	11e2fc2b 	beq	t7,v0,40361c <_nl_load_domain+0x4ec>
  404570:	00601025 	move	v0,v1
  404574:	24020075 	li	v0,117
  404578:	11e2fc28 	beq	t7,v0,40361c <_nl_load_domain+0x4ec>
  40457c:	01401025 	move	v0,t2
  404580:	24020078 	li	v0,120
  404584:	11e2fc25 	beq	t7,v0,40361c <_nl_load_domain+0x4ec>
  404588:	01201025 	move	v0,t1
  40458c:	24020058 	li	v0,88
  404590:	15e20090 	bne	t7,v0,4047d4 <_nl_load_domain+0x16a4>
  404594:	01001025 	move	v0,t0
  404598:	1000fc21 	b	403620 <_nl_load_domain+0x4f0>
  40459c:	24a50001 	addiu	a1,a1,1
  4045a0:	1000fc1e 	b	40361c <_nl_load_domain+0x4ec>
  4045a4:	01201025 	move	v0,t1
  4045a8:	1000fc1c 	b	40361c <_nl_load_domain+0x4ec>
  4045ac:	00001025 	move	v0,zero
  4045b0:	1000fc1a 	b	40361c <_nl_load_domain+0x4ec>
  4045b4:	01201025 	move	v0,t1
  4045b8:	80580009 	lb	t8,9(v0)
  4045bc:	24190038 	li	t9,56
  4045c0:	1319004c 	beq	t8,t9,4046f4 <_nl_load_domain+0x15c4>
  4045c4:	24190031 	li	t9,49
  4045c8:	13190044 	beq	t8,t9,4046dc <_nl_load_domain+0x15ac>
  4045cc:	24190033 	li	t9,51
  4045d0:	1719001e 	bne	t8,t9,40464c <_nl_load_domain+0x151c>
  4045d4:	24190036 	li	t9,54
  4045d8:	8059000a 	lb	t9,10(v0)
  4045dc:	24180032 	li	t8,50
  4045e0:	13380003 	beq	t9,t8,4045f0 <_nl_load_domain+0x14c0>
  4045e4:	00000000 	nop
  4045e8:	1000fc0c 	b	40361c <_nl_load_domain+0x4ec>
  4045ec:	00001025 	move	v0,zero
  4045f0:	8042000b 	lb	v0,11(v0)
  4045f4:	1440fc09 	bnez	v0,40361c <_nl_load_domain+0x4ec>
  4045f8:	00001025 	move	v0,zero
  4045fc:	24020064 	li	v0,100
  404600:	11e2fc06 	beq	t7,v0,40361c <_nl_load_domain+0x4ec>
  404604:	01c01025 	move	v0,t6
  404608:	24020069 	li	v0,105
  40460c:	11e2fc03 	beq	t7,v0,40361c <_nl_load_domain+0x4ec>
  404610:	01a01025 	move	v0,t5
  404614:	2402006f 	li	v0,111
  404618:	11e2fc00 	beq	t7,v0,40361c <_nl_load_domain+0x4ec>
  40461c:	00601025 	move	v0,v1
  404620:	24020075 	li	v0,117
  404624:	11e2fbfd 	beq	t7,v0,40361c <_nl_load_domain+0x4ec>
  404628:	01401025 	move	v0,t2
  40462c:	24020078 	li	v0,120
  404630:	11e2fbfa 	beq	t7,v0,40361c <_nl_load_domain+0x4ec>
  404634:	01201025 	move	v0,t1
  404638:	24020058 	li	v0,88
  40463c:	15e20065 	bne	t7,v0,4047d4 <_nl_load_domain+0x16a4>
  404640:	01001025 	move	v0,t0
  404644:	1000fbf6 	b	403620 <_nl_load_domain+0x4f0>
  404648:	24a50001 	addiu	a1,a1,1
  40464c:	1719001d 	bne	t8,t9,4046c4 <_nl_load_domain+0x1594>
  404650:	24180034 	li	t8,52
  404654:	8059000a 	lb	t9,10(v0)
  404658:	13380003 	beq	t9,t8,404668 <_nl_load_domain+0x1538>
  40465c:	00000000 	nop
  404660:	1000fbee 	b	40361c <_nl_load_domain+0x4ec>
  404664:	00001025 	move	v0,zero
  404668:	8042000b 	lb	v0,11(v0)
  40466c:	1440fbeb 	bnez	v0,40361c <_nl_load_domain+0x4ec>
  404670:	00001025 	move	v0,zero
  404674:	24020064 	li	v0,100
  404678:	11e2fbe8 	beq	t7,v0,40361c <_nl_load_domain+0x4ec>
  40467c:	00e01025 	move	v0,a3
  404680:	24020069 	li	v0,105
  404684:	11e2fbe5 	beq	t7,v0,40361c <_nl_load_domain+0x4ec>
  404688:	00c01025 	move	v0,a2
  40468c:	2402006f 	li	v0,111
  404690:	11e2fbe2 	beq	t7,v0,40361c <_nl_load_domain+0x4ec>
  404694:	03e01025 	move	v0,ra
  404698:	24020075 	li	v0,117
  40469c:	11e2000d 	beq	t7,v0,4046d4 <_nl_load_domain+0x15a4>
  4046a0:	8fa20030 	lw	v0,48(sp)
  4046a4:	24020078 	li	v0,120
  4046a8:	11e20008 	beq	t7,v0,4046cc <_nl_load_domain+0x159c>
  4046ac:	3c020046 	lui	v0,0x46
  4046b0:	24020058 	li	v0,88
  4046b4:	15e20047 	bne	t7,v0,4047d4 <_nl_load_domain+0x16a4>
  4046b8:	3c020046 	lui	v0,0x46
  4046bc:	1000fbd7 	b	40361c <_nl_load_domain+0x4ec>
  4046c0:	24425598 	addiu	v0,v0,21912
  4046c4:	1000fbd5 	b	40361c <_nl_load_domain+0x4ec>
  4046c8:	00001025 	move	v0,zero
  4046cc:	1000fbd3 	b	40361c <_nl_load_domain+0x4ec>
  4046d0:	2442559c 	addiu	v0,v0,21916
  4046d4:	1000fbd1 	b	40361c <_nl_load_domain+0x4ec>
  4046d8:	2442558c 	addiu	v0,v0,21900
  4046dc:	8059000a 	lb	t9,10(v0)
  4046e0:	24180036 	li	t8,54
  4046e4:	1338001a 	beq	t9,t8,404750 <_nl_load_domain+0x1620>
  4046e8:	00000000 	nop
  4046ec:	1000fbcb 	b	40361c <_nl_load_domain+0x4ec>
  4046f0:	00001025 	move	v0,zero
  4046f4:	8042000a 	lb	v0,10(v0)
  4046f8:	1440fbc8 	bnez	v0,40361c <_nl_load_domain+0x4ec>
  4046fc:	00001025 	move	v0,zero
  404700:	24020064 	li	v0,100
  404704:	11e2fbc5 	beq	t7,v0,40361c <_nl_load_domain+0x4ec>
  404708:	01c01025 	move	v0,t6
  40470c:	24020069 	li	v0,105
  404710:	11e2fbc2 	beq	t7,v0,40361c <_nl_load_domain+0x4ec>
  404714:	01a01025 	move	v0,t5
  404718:	2402006f 	li	v0,111
  40471c:	11e2fbbf 	beq	t7,v0,40361c <_nl_load_domain+0x4ec>
  404720:	00601025 	move	v0,v1
  404724:	24020075 	li	v0,117
  404728:	11e2fbbc 	beq	t7,v0,40361c <_nl_load_domain+0x4ec>
  40472c:	01401025 	move	v0,t2
  404730:	24020078 	li	v0,120
  404734:	11e2fbb9 	beq	t7,v0,40361c <_nl_load_domain+0x4ec>
  404738:	01201025 	move	v0,t1
  40473c:	24020058 	li	v0,88
  404740:	15e20024 	bne	t7,v0,4047d4 <_nl_load_domain+0x16a4>
  404744:	01001025 	move	v0,t0
  404748:	1000fbb5 	b	403620 <_nl_load_domain+0x4f0>
  40474c:	24a50001 	addiu	a1,a1,1
  404750:	8042000b 	lb	v0,11(v0)
  404754:	1440fbb1 	bnez	v0,40361c <_nl_load_domain+0x4ec>
  404758:	00001025 	move	v0,zero
  40475c:	24020064 	li	v0,100
  404760:	11e2fbae 	beq	t7,v0,40361c <_nl_load_domain+0x4ec>
  404764:	01c01025 	move	v0,t6
  404768:	24020069 	li	v0,105
  40476c:	11e2fbab 	beq	t7,v0,40361c <_nl_load_domain+0x4ec>
  404770:	01a01025 	move	v0,t5
  404774:	2402006f 	li	v0,111
  404778:	11e2fba8 	beq	t7,v0,40361c <_nl_load_domain+0x4ec>
  40477c:	00601025 	move	v0,v1
  404780:	24020075 	li	v0,117
  404784:	11e2fba5 	beq	t7,v0,40361c <_nl_load_domain+0x4ec>
  404788:	01401025 	move	v0,t2
  40478c:	24020078 	li	v0,120
  404790:	11e2fba2 	beq	t7,v0,40361c <_nl_load_domain+0x4ec>
  404794:	01201025 	move	v0,t1
  404798:	24020058 	li	v0,88
  40479c:	15e2000d 	bne	t7,v0,4047d4 <_nl_load_domain+0x16a4>
  4047a0:	01001025 	move	v0,t0
  4047a4:	1000fb9e 	b	403620 <_nl_load_domain+0x4f0>
  4047a8:	24a50001 	addiu	a1,a1,1
  4047ac:	1000fb9b 	b	40361c <_nl_load_domain+0x4ec>
  4047b0:	01201025 	move	v0,t1
  4047b4:	1000fb99 	b	40361c <_nl_load_domain+0x4ec>
  4047b8:	2442559c 	addiu	v0,v0,21916
  4047bc:	1000fb97 	b	40361c <_nl_load_domain+0x4ec>
  4047c0:	2442558c 	addiu	v0,v0,21900
  4047c4:	1000fb95 	b	40361c <_nl_load_domain+0x4ec>
  4047c8:	2442559c 	addiu	v0,v0,21916
  4047cc:	1000fb93 	b	40361c <_nl_load_domain+0x4ec>
  4047d0:	2442558c 	addiu	v0,v0,21900
  4047d4:	3c190040 	lui	t9,0x40
  4047d8:	273902e0 	addiu	t9,t9,736
  4047dc:	0411eec0 	bal	4002e0 <abort>
  4047e0:	00000000 	nop
	...

004047f0 <alias_compare>:
  4047f0:	3c060049 	lui	a2,0x49
  4047f4:	8c840000 	lw	a0,0(a0)
  4047f8:	3c190042 	lui	t9,0x42
  4047fc:	8ca50000 	lw	a1,0(a1)
  404800:	2739ae60 	addiu	t9,t9,-20896
  404804:	10005996 	b	41ae60 <__strcasecmp_l>
  404808:	24c60f6c 	addiu	a2,a2,3948

0040480c <read_alias_file>:
  40480c:	3c1c004a 	lui	gp,0x4a
  404810:	24a20015 	addiu	v0,a1,21
  404814:	279ca2b0 	addiu	gp,gp,-23888
  404818:	27bdfde8 	addiu	sp,sp,-536
  40481c:	000210c2 	srl	v0,v0,0x3
  404820:	8f838038 	lw	v1,-32712(gp)
  404824:	00a03025 	move	a2,a1
  404828:	000210c0 	sll	v0,v0,0x3
  40482c:	8f9980e8 	lw	t9,-32536(gp)
  404830:	afbe0210 	sw	s8,528(sp)
  404834:	03a0f025 	move	s8,sp
  404838:	afbf0214 	sw	ra,532(sp)
  40483c:	00802825 	move	a1,a0
  404840:	afbc0010 	sw	gp,16(sp)
  404844:	afb7020c 	sw	s7,524(sp)
  404848:	afb60208 	sw	s6,520(sp)
  40484c:	afb50204 	sw	s5,516(sp)
  404850:	afb40200 	sw	s4,512(sp)
  404854:	afb301fc 	sw	s3,508(sp)
  404858:	afb201f8 	sw	s2,504(sp)
  40485c:	afb101f4 	sw	s1,500(sp)
  404860:	afb001f0 	sw	s0,496(sp)
  404864:	03a2e823 	subu	sp,sp,v0
  404868:	afc30044 	sw	v1,68(s8)
  40486c:	8c630000 	lw	v1,0(v1)
  404870:	27a40010 	addiu	a0,sp,16
  404874:	afc40054 	sw	a0,84(s8)
  404878:	afc301ec 	sw	v1,492(s8)
  40487c:	0411594c 	bal	41adb0 <mempcpy>
  404880:	00000000 	nop
  404884:	3c050046 	lui	a1,0x46
  404888:	8fdc0010 	lw	gp,16(s8)
  40488c:	24a355a8 	addiu	v1,a1,21928
  404890:	8fc40054 	lw	a0,84(s8)
  404894:	8ca855a8 	lw	t0,21928(a1)
  404898:	3c050046 	lui	a1,0x46
  40489c:	8c670004 	lw	a3,4(v1)
  4048a0:	24a555a4 	addiu	a1,a1,21924
  4048a4:	8c660008 	lw	a2,8(v1)
  4048a8:	9069000c 	lbu	t1,12(v1)
  4048ac:	9063000d 	lbu	v1,13(v1)
  4048b0:	8f9980ec 	lw	t9,-32532(gp)
  4048b4:	a8480000 	swl	t0,0(v0)
  4048b8:	b8480003 	swr	t0,3(v0)
  4048bc:	a8470004 	swl	a3,4(v0)
  4048c0:	b8470007 	swr	a3,7(v0)
  4048c4:	a8460008 	swl	a2,8(v0)
  4048c8:	b846000b 	swr	a2,11(v0)
  4048cc:	a049000c 	sb	t1,12(v0)
  4048d0:	041110fe 	bal	408ccc <_IO_new_fopen>
  4048d4:	a043000d 	sb	v1,13(v0)
  4048d8:	1040012a 	beqz	v0,404d84 <read_alias_file+0x578>
  4048dc:	8fdc0010 	lw	gp,16(s8)
  4048e0:	00409025 	move	s2,v0
  4048e4:	8c420000 	lw	v0,0(v0)
  4048e8:	34438000 	ori	v1,v0,0x8000
  4048ec:	30420010 	andi	v0,v0,0x10
  4048f0:	14400138 	bnez	v0,404dd4 <read_alias_file+0x5c8>
  4048f4:	ae430000 	sw	v1,0(s2)
  4048f8:	3c020049 	lui	v0,0x49
  4048fc:	8f9583b4 	lw	s5,-31820(gp)
  404900:	3c130041 	lui	s3,0x41
  404904:	afc00054 	sw	zero,84(s8)
  404908:	afc2004c 	sw	v0,76(s8)
  40490c:	3c020042 	lui	v0,0x42
  404910:	3c140042 	lui	s4,0x42
  404914:	24429d50 	addiu	v0,v0,-25264
  404918:	7c03e83b 	rdhwr	v1,$29
  40491c:	27d1005c 	addiu	s1,s8,92
  404920:	afc20048 	sw	v0,72(s8)
  404924:	2673bd70 	addiu	s3,s3,-17040
  404928:	26949740 	addiu	s4,s4,-26816
  40492c:	02a3a821 	addu	s5,s5,v1
  404930:	24050190 	li	a1,400
  404934:	02403025 	move	a2,s2
  404938:	0260c825 	move	t9,s3
  40493c:	04111d0c 	bal	40bd70 <__fgets_unlocked>
  404940:	02202025 	move	a0,s1
  404944:	10400022 	beqz	v0,4049d0 <read_alias_file+0x1c4>
  404948:	8fdc0010 	lw	gp,16(s8)
  40494c:	2405000a 	li	a1,10
  404950:	0280c825 	move	t9,s4
  404954:	0411537a 	bal	419740 <strchr>
  404958:	02202025 	move	a0,s1
  40495c:	02208025 	move	s0,s1
  404960:	83c3005c 	lb	v1,92(s8)
  404964:	00403825 	move	a3,v0
  404968:	8ea40000 	lw	a0,0(s5)
  40496c:	306200ff 	andi	v0,v1,0xff
  404970:	00021040 	sll	v0,v0,0x1
  404974:	00821021 	addu	v0,a0,v0
  404978:	94420000 	lhu	v0,0(v0)
  40497c:	30420020 	andi	v0,v0,0x20
  404980:	10400009 	beqz	v0,4049a8 <read_alias_file+0x19c>
  404984:	8fdc0010 	lw	gp,16(s8)
  404988:	82030001 	lb	v1,1(s0)
  40498c:	306200ff 	andi	v0,v1,0xff
  404990:	00021040 	sll	v0,v0,0x1
  404994:	00821021 	addu	v0,a0,v0
  404998:	94420000 	lhu	v0,0(v0)
  40499c:	30420020 	andi	v0,v0,0x20
  4049a0:	1440fff9 	bnez	v0,404988 <read_alias_file+0x17c>
  4049a4:	26100001 	addiu	s0,s0,1
  4049a8:	10600003 	beqz	v1,4049b8 <read_alias_file+0x1ac>
  4049ac:	24020023 	li	v0,35
  4049b0:	14620039 	bne	v1,v0,404a98 <read_alias_file+0x28c>
  4049b4:	00000000 	nop
  4049b8:	10e0002f 	beqz	a3,404a78 <read_alias_file+0x26c>
  4049bc:	24050190 	li	a1,400
  4049c0:	8e420000 	lw	v0,0(s2)
  4049c4:	30420010 	andi	v0,v0,0x10
  4049c8:	1040ffda 	beqz	v0,404934 <read_alias_file+0x128>
  4049cc:	24050190 	li	a1,400
  4049d0:	8f9980f0 	lw	t9,-32528(gp)
  4049d4:	04110f02 	bal	4085e0 <_IO_new_fclose>
  4049d8:	02402025 	move	a0,s2
  4049dc:	8fc20054 	lw	v0,84(s8)
  4049e0:	1040000c 	beqz	v0,404a14 <read_alias_file+0x208>
  4049e4:	8fdc0010 	lw	gp,16(s8)
  4049e8:	3c020049 	lui	v0,0x49
  4049ec:	3c070040 	lui	a3,0x40
  4049f0:	3c190040 	lui	t9,0x40
  4049f4:	8c452a68 	lw	a1,10856(v0)
  4049f8:	3c020049 	lui	v0,0x49
  4049fc:	24e747f0 	addiu	a3,a3,18416
  404a00:	24060008 	li	a2,8
  404a04:	27396ff8 	addiu	t9,t9,28664
  404a08:	0411097b 	bal	406ff8 <qsort>
  404a0c:	8c443488 	lw	a0,13448(v0)
  404a10:	8fdc0010 	lw	gp,16(s8)
  404a14:	8fc20044 	lw	v0,68(s8)
  404a18:	8fc301ec 	lw	v1,492(s8)
  404a1c:	8c420000 	lw	v0,0(v0)
  404a20:	146200f2 	bne	v1,v0,404dec <read_alias_file+0x5e0>
  404a24:	8fc20054 	lw	v0,84(s8)
  404a28:	03c0e825 	move	sp,s8
  404a2c:	8fbf0214 	lw	ra,532(sp)
  404a30:	8fbe0210 	lw	s8,528(sp)
  404a34:	8fb7020c 	lw	s7,524(sp)
  404a38:	8fb60208 	lw	s6,520(sp)
  404a3c:	8fb50204 	lw	s5,516(sp)
  404a40:	8fb40200 	lw	s4,512(sp)
  404a44:	8fb301fc 	lw	s3,508(sp)
  404a48:	8fb201f8 	lw	s2,504(sp)
  404a4c:	8fb101f4 	lw	s1,500(sp)
  404a50:	8fb001f0 	lw	s0,496(sp)
  404a54:	03e00008 	jr	ra
  404a58:	27bd0218 	addiu	sp,sp,536
  404a5c:	2405000a 	li	a1,10
  404a60:	0280c825 	move	t9,s4
  404a64:	04115336 	bal	419740 <strchr>
  404a68:	02202025 	move	a0,s1
  404a6c:	1440ffd4 	bnez	v0,4049c0 <read_alias_file+0x1b4>
  404a70:	8fdc0010 	lw	gp,16(s8)
  404a74:	24050190 	li	a1,400
  404a78:	02403025 	move	a2,s2
  404a7c:	0260c825 	move	t9,s3
  404a80:	04111cbb 	bal	40bd70 <__fgets_unlocked>
  404a84:	02202025 	move	a0,s1
  404a88:	1440fff4 	bnez	v0,404a5c <read_alias_file+0x250>
  404a8c:	8fdc0010 	lw	gp,16(s8)
  404a90:	1000ffcc 	b	4049c4 <read_alias_file+0x1b8>
  404a94:	8e420000 	lw	v0,0(s2)
  404a98:	82050001 	lb	a1,1(s0)
  404a9c:	14a00005 	bnez	a1,404ab4 <read_alias_file+0x2a8>
  404aa0:	26160001 	addiu	s6,s0,1
  404aa4:	10000017 	b	404b04 <read_alias_file+0x2f8>
  404aa8:	30a200ff 	andi	v0,a1,0xff
  404aac:	10a00015 	beqz	a1,404b04 <read_alias_file+0x2f8>
  404ab0:	30a200ff 	andi	v0,a1,0xff
  404ab4:	30a200ff 	andi	v0,a1,0xff
  404ab8:	82c50001 	lb	a1,1(s6)
  404abc:	00021040 	sll	v0,v0,0x1
  404ac0:	02c03025 	move	a2,s6
  404ac4:	00821021 	addu	v0,a0,v0
  404ac8:	94420000 	lhu	v0,0(v0)
  404acc:	30420020 	andi	v0,v0,0x20
  404ad0:	1040fff6 	beqz	v0,404aac <read_alias_file+0x2a0>
  404ad4:	26d60001 	addiu	s6,s6,1
  404ad8:	30a200ff 	andi	v0,a1,0xff
  404adc:	a0c00000 	sb	zero,0(a2)
  404ae0:	00021040 	sll	v0,v0,0x1
  404ae4:	00821021 	addu	v0,a0,v0
  404ae8:	94420000 	lhu	v0,0(v0)
  404aec:	30420020 	andi	v0,v0,0x20
  404af0:	1040000a 	beqz	v0,404b1c <read_alias_file+0x310>
  404af4:	00000000 	nop
  404af8:	82c50001 	lb	a1,1(s6)
  404afc:	26d60001 	addiu	s6,s6,1
  404b00:	30a200ff 	andi	v0,a1,0xff
  404b04:	00021040 	sll	v0,v0,0x1
  404b08:	00821021 	addu	v0,a0,v0
  404b0c:	94420000 	lhu	v0,0(v0)
  404b10:	30420020 	andi	v0,v0,0x20
  404b14:	1440fff8 	bnez	v0,404af8 <read_alias_file+0x2ec>
  404b18:	00000000 	nop
  404b1c:	10a0ffa6 	beqz	a1,4049b8 <read_alias_file+0x1ac>
  404b20:	00000000 	nop
  404b24:	82c50001 	lb	a1,1(s6)
  404b28:	14a00006 	bnez	a1,404b44 <read_alias_file+0x338>
  404b2c:	26c60001 	addiu	a2,s6,1
  404b30:	10000010 	b	404b74 <read_alias_file+0x368>
  404b34:	8fc2004c 	lw	v0,76(s8)
  404b38:	80c50001 	lb	a1,1(a2)
  404b3c:	10a0000c 	beqz	a1,404b70 <read_alias_file+0x364>
  404b40:	24c60001 	addiu	a2,a2,1
  404b44:	30a200ff 	andi	v0,a1,0xff
  404b48:	00021040 	sll	v0,v0,0x1
  404b4c:	00821021 	addu	v0,a0,v0
  404b50:	94420000 	lhu	v0,0(v0)
  404b54:	30420020 	andi	v0,v0,0x20
  404b58:	1040fff7 	beqz	v0,404b38 <read_alias_file+0x32c>
  404b5c:	2402000a 	li	v0,10
  404b60:	14a20084 	bne	a1,v0,404d74 <read_alias_file+0x568>
  404b64:	00000000 	nop
  404b68:	a0c00000 	sb	zero,0(a2)
  404b6c:	a0c50001 	sb	a1,1(a2)
  404b70:	8fc2004c 	lw	v0,76(s8)
  404b74:	3c170049 	lui	s7,0x49
  404b78:	8ee52a64 	lw	a1,10852(s7)
  404b7c:	8c422a68 	lw	v0,10856(v0)
  404b80:	afc20050 	sw	v0,80(s8)
  404b84:	0045102b 	sltu	v0,v0,a1
  404b88:	10400067 	beqz	v0,404d28 <read_alias_file+0x51c>
  404b8c:	00000000 	nop
  404b90:	8fd90048 	lw	t9,72(s8)
  404b94:	02002025 	move	a0,s0
  404b98:	0320f809 	jalr	t9
  404b9c:	afc7003c 	sw	a3,60(s8)
  404ba0:	02c02025 	move	a0,s6
  404ba4:	24460001 	addiu	a2,v0,1
  404ba8:	8fd90048 	lw	t9,72(s8)
  404bac:	0320f809 	jalr	t9
  404bb0:	afc60040 	sw	a2,64(s8)
  404bb4:	3c0a0049 	lui	t2,0x49
  404bb8:	8fc60040 	lw	a2,64(s8)
  404bbc:	3c0e0049 	lui	t6,0x49
  404bc0:	24490001 	addiu	t1,v0,1
  404bc4:	8fdc0010 	lw	gp,16(s8)
  404bc8:	8d4d2a70 	lw	t5,10864(t2)
  404bcc:	3c0f0049 	lui	t7,0x49
  404bd0:	8dc22a6c 	lw	v0,10860(t6)
  404bd4:	8fc7003c 	lw	a3,60(s8)
  404bd8:	01a66021 	addu	t4,t5,a2
  404bdc:	01895821 	addu	t3,t4,t1
  404be0:	004b282b 	sltu	a1,v0,t3
  404be4:	10a00028 	beqz	a1,404c88 <read_alias_file+0x47c>
  404be8:	8de4348c 	lw	a0,13452(t7)
  404bec:	00c9b821 	addu	s7,a2,t1
  404bf0:	8f9980c8 	lw	t9,-32568(gp)
  404bf4:	24050400 	li	a1,1024
  404bf8:	afca001c 	sw	t2,28(s8)
  404bfc:	2ee80400 	sltiu	t0,s7,1024
  404c00:	afcf0020 	sw	t7,32(s8)
  404c04:	00a8b80b 	movn	s7,a1,t0
  404c08:	afce0024 	sw	t6,36(s8)
  404c0c:	afcb0028 	sw	t3,40(s8)
  404c10:	02e2b821 	addu	s7,s7,v0
  404c14:	afcc002c 	sw	t4,44(s8)
  404c18:	afcd0030 	sw	t5,48(s8)
  404c1c:	afc70034 	sw	a3,52(s8)
  404c20:	02e02825 	move	a1,s7
  404c24:	afc90038 	sw	t1,56(s8)
  404c28:	afc6003c 	sw	a2,60(s8)
  404c2c:	04114d5a 	bal	418198 <__libc_realloc>
  404c30:	afc40040 	sw	a0,64(s8)
  404c34:	8fdc0010 	lw	gp,16(s8)
  404c38:	1040ff65 	beqz	v0,4049d0 <read_alias_file+0x1c4>
  404c3c:	00404025 	move	t0,v0
  404c40:	3c020049 	lui	v0,0x49
  404c44:	8fc40040 	lw	a0,64(s8)
  404c48:	8fc6003c 	lw	a2,60(s8)
  404c4c:	8fc90038 	lw	t1,56(s8)
  404c50:	8c583488 	lw	t8,13448(v0)
  404c54:	8fc70034 	lw	a3,52(s8)
  404c58:	8fcd0030 	lw	t5,48(s8)
  404c5c:	8fcc002c 	lw	t4,44(s8)
  404c60:	8fcb0028 	lw	t3,40(s8)
  404c64:	8fce0024 	lw	t6,36(s8)
  404c68:	8fcf0020 	lw	t7,32(s8)
  404c6c:	8fca001c 	lw	t2,28(s8)
  404c70:	15040046 	bne	t0,a0,404d8c <read_alias_file+0x580>
  404c74:	8fc20050 	lw	v0,80(s8)
  404c78:	000228c0 	sll	a1,v0,0x3
  404c7c:	ade8348c 	sw	t0,13452(t7)
  404c80:	10000006 	b	404c9c <read_alias_file+0x490>
  404c84:	add72a6c 	sw	s7,10860(t6)
  404c88:	8fc20050 	lw	v0,80(s8)
  404c8c:	00804025 	move	t0,a0
  404c90:	000228c0 	sll	a1,v0,0x3
  404c94:	3c020049 	lui	v0,0x49
  404c98:	8c583488 	lw	t8,13448(v0)
  404c9c:	8f99809c 	lw	t9,-32612(gp)
  404ca0:	010d2021 	addu	a0,t0,t5
  404ca4:	0305b821 	addu	s7,t8,a1
  404ca8:	afca002c 	sw	t2,44(s8)
  404cac:	afcb0034 	sw	t3,52(s8)
  404cb0:	02002825 	move	a1,s0
  404cb4:	afc7003c 	sw	a3,60(s8)
  404cb8:	afc90030 	sw	t1,48(s8)
  404cbc:	afcc0038 	sw	t4,56(s8)
  404cc0:	0411587f 	bal	41aec0 <memcpy>
  404cc4:	afc80040 	sw	t0,64(s8)
  404cc8:	02c02825 	move	a1,s6
  404ccc:	8fdc0010 	lw	gp,16(s8)
  404cd0:	8fc80040 	lw	t0,64(s8)
  404cd4:	8fcc0038 	lw	t4,56(s8)
  404cd8:	8fc90030 	lw	t1,48(s8)
  404cdc:	8f99809c 	lw	t9,-32612(gp)
  404ce0:	010c2021 	addu	a0,t0,t4
  404ce4:	aee20000 	sw	v0,0(s7)
  404ce8:	04115875 	bal	41aec0 <memcpy>
  404cec:	01203025 	move	a2,t1
  404cf0:	8fc30050 	lw	v1,80(s8)
  404cf4:	8fdc0010 	lw	gp,16(s8)
  404cf8:	8fca002c 	lw	t2,44(s8)
  404cfc:	24760001 	addiu	s6,v1,1
  404d00:	8fc30054 	lw	v1,84(s8)
  404d04:	8fcb0034 	lw	t3,52(s8)
  404d08:	8fc7003c 	lw	a3,60(s8)
  404d0c:	aee20004 	sw	v0,4(s7)
  404d10:	24630001 	addiu	v1,v1,1
  404d14:	ad4b2a70 	sw	t3,10864(t2)
  404d18:	afc30054 	sw	v1,84(s8)
  404d1c:	8fc2004c 	lw	v0,76(s8)
  404d20:	1000ff25 	b	4049b8 <read_alias_file+0x1ac>
  404d24:	ac562a68 	sw	s6,10856(v0)
  404d28:	14a00014 	bnez	a1,404d7c <read_alias_file+0x570>
  404d2c:	00054040 	sll	t0,a1,0x1
  404d30:	24050320 	li	a1,800
  404d34:	24080064 	li	t0,100
  404d38:	3c060049 	lui	a2,0x49
  404d3c:	8f9980c8 	lw	t9,-32568(gp)
  404d40:	afc80038 	sw	t0,56(s8)
  404d44:	afc7003c 	sw	a3,60(s8)
  404d48:	afc60040 	sw	a2,64(s8)
  404d4c:	04114d12 	bal	418198 <__libc_realloc>
  404d50:	8cc43488 	lw	a0,13448(a2)
  404d54:	1040ff1e 	beqz	v0,4049d0 <read_alias_file+0x1c4>
  404d58:	8fdc0010 	lw	gp,16(s8)
  404d5c:	8fc60040 	lw	a2,64(s8)
  404d60:	8fc80038 	lw	t0,56(s8)
  404d64:	8fc7003c 	lw	a3,60(s8)
  404d68:	acc23488 	sw	v0,13448(a2)
  404d6c:	1000ff88 	b	404b90 <read_alias_file+0x384>
  404d70:	aee82a64 	sw	t0,10852(s7)
  404d74:	1000ff7e 	b	404b70 <read_alias_file+0x364>
  404d78:	a0c00000 	sb	zero,0(a2)
  404d7c:	1000ffee 	b	404d38 <read_alias_file+0x52c>
  404d80:	00052900 	sll	a1,a1,0x4
  404d84:	1000ff23 	b	404a14 <read_alias_file+0x208>
  404d88:	afc00054 	sw	zero,84(s8)
  404d8c:	1040ffbb 	beqz	v0,404c7c <read_alias_file+0x470>
  404d90:	00002825 	move	a1,zero
  404d94:	8fc20050 	lw	v0,80(s8)
  404d98:	01042023 	subu	a0,t0,a0
  404d9c:	000228c0 	sll	a1,v0,0x3
  404da0:	03001025 	move	v0,t8
  404da4:	03051821 	addu	v1,t8,a1
  404da8:	8c5f0000 	lw	ra,0(v0)
  404dac:	24420008 	addiu	v0,v0,8
  404db0:	03e4f821 	addu	ra,ra,a0
  404db4:	8c59fffc 	lw	t9,-4(v0)
  404db8:	ac5ffff8 	sw	ra,-8(v0)
  404dbc:	0324c821 	addu	t9,t9,a0
  404dc0:	1462fff9 	bne	v1,v0,404da8 <read_alias_file+0x59c>
  404dc4:	ac59fffc 	sw	t9,-4(v0)
  404dc8:	ade8348c 	sw	t0,13452(t7)
  404dcc:	1000ffb3 	b	404c9c <read_alias_file+0x490>
  404dd0:	add72a6c 	sw	s7,10860(t6)
  404dd4:	8f9980f0 	lw	t9,-32528(gp)
  404dd8:	04110e01 	bal	4085e0 <_IO_new_fclose>
  404ddc:	02402025 	move	a0,s2
  404de0:	8fdc0010 	lw	gp,16(s8)
  404de4:	1000ff0b 	b	404a14 <read_alias_file+0x208>
  404de8:	afc00054 	sw	zero,84(s8)
  404dec:	8f998058 	lw	t9,-32680(gp)
  404df0:	04116973 	bal	41f3c0 <__stack_chk_fail>
  404df4:	00000000 	nop

00404df8 <_nl_expand_alias>:
  404df8:	27bdffb0 	addiu	sp,sp,-80
  404dfc:	3c020049 	lui	v0,0x49
  404e00:	afb1002c 	sw	s1,44(sp)
  404e04:	00808825 	move	s1,a0
  404e08:	00402025 	move	a0,v0
  404e0c:	afbf004c 	sw	ra,76(sp)
  404e10:	afbe0048 	sw	s8,72(sp)
  404e14:	afb70044 	sw	s7,68(sp)
  404e18:	afb60040 	sw	s6,64(sp)
  404e1c:	afb5003c 	sw	s5,60(sp)
  404e20:	afb40038 	sw	s4,56(sp)
  404e24:	afb30034 	sw	s3,52(sp)
  404e28:	afb20030 	sw	s2,48(sp)
  404e2c:	afb00028 	sw	s0,40(sp)
  404e30:	afa20020 	sw	v0,32(sp)
  404e34:	c0832a74 	ll	v1,10868(a0)
  404e38:	14600006 	bnez	v1,404e54 <_nl_expand_alias+0x5c>
  404e3c:	24020000 	li	v0,0
  404e40:	24010001 	li	at,1
  404e44:	e0812a74 	sc	at,10868(a0)
  404e48:	1020fffa 	beqz	at,404e34 <_nl_expand_alias+0x3c>
  404e4c:	24020001 	li	v0,1
  404e50:	0000000f 	sync
  404e54:	10400089 	beqz	v0,40507c <_nl_expand_alias+0x284>
  404e58:	8fa20020 	lw	v0,32(sp)
  404e5c:	3c120049 	lui	s2,0x49
  404e60:	8e422a60 	lw	v0,10848(s2)
  404e64:	10400063 	beqz	v0,404ff4 <_nl_expand_alias+0x1fc>
  404e68:	3c020046 	lui	v0,0x46
  404e6c:	3c020049 	lui	v0,0x49
  404e70:	3c100042 	lui	s0,0x42
  404e74:	afa2001c 	sw	v0,28(sp)
  404e78:	3c020049 	lui	v0,0x49
  404e7c:	3c160049 	lui	s6,0x49
  404e80:	afa20024 	sw	v0,36(sp)
  404e84:	2610ae60 	addiu	s0,s0,-20896
  404e88:	8fa2001c 	lw	v0,28(sp)
  404e8c:	8c542a68 	lw	s4,10856(v0)
  404e90:	16800027 	bnez	s4,404f30 <_nl_expand_alias+0x138>
  404e94:	26d60f6c 	addiu	s6,s6,3948
  404e98:	2417003a 	li	s7,58
  404e9c:	8e452a60 	lw	a1,10848(s2)
  404ea0:	00003025 	move	a2,zero
  404ea4:	80a20000 	lb	v0,0(a1)
  404ea8:	10400037 	beqz	v0,404f88 <_nl_expand_alias+0x190>
  404eac:	24a30001 	addiu	v1,a1,1
  404eb0:	14570009 	bne	v0,s7,404ed8 <_nl_expand_alias+0xe0>
  404eb4:	00a02025 	move	a0,a1
  404eb8:	00602025 	move	a0,v1
  404ebc:	24630001 	addiu	v1,v1,1
  404ec0:	8062ffff 	lb	v0,-1(v1)
  404ec4:	1057fffc 	beq	v0,s7,404eb8 <_nl_expand_alias+0xc0>
  404ec8:	00000000 	nop
  404ecc:	24060001 	li	a2,1
  404ed0:	1040fff4 	beqz	v0,404ea4 <_nl_expand_alias+0xac>
  404ed4:	00802825 	move	a1,a0
  404ed8:	10000005 	b	404ef0 <_nl_expand_alias+0xf8>
  404edc:	00802825 	move	a1,a0
  404ee0:	80a20001 	lb	v0,1(a1)
  404ee4:	24060001 	li	a2,1
  404ee8:	10400003 	beqz	v0,404ef8 <_nl_expand_alias+0x100>
  404eec:	24a50001 	addiu	a1,a1,1
  404ef0:	1457fffb 	bne	v0,s7,404ee0 <_nl_expand_alias+0xe8>
  404ef4:	00000000 	nop
  404ef8:	0085102b 	sltu	v0,a0,a1
  404efc:	1040ffe9 	beqz	v0,404ea4 <_nl_expand_alias+0xac>
  404f00:	00000000 	nop
  404f04:	10c00002 	beqz	a2,404f10 <_nl_expand_alias+0x118>
  404f08:	00000000 	nop
  404f0c:	ae452a60 	sw	a1,10848(s2)
  404f10:	0c101203 	jal	40480c <read_alias_file>
  404f14:	00a42823 	subu	a1,a1,a0
  404f18:	1040ffe1 	beqz	v0,404ea0 <_nl_expand_alias+0xa8>
  404f1c:	8e452a60 	lw	a1,10848(s2)
  404f20:	8fa2001c 	lw	v0,28(sp)
  404f24:	8c542a68 	lw	s4,10856(v0)
  404f28:	1280ffdd 	beqz	s4,404ea0 <_nl_expand_alias+0xa8>
  404f2c:	2417003a 	li	s7,58
  404f30:	8fa20024 	lw	v0,36(sp)
  404f34:	00009825 	move	s3,zero
  404f38:	10000006 	b	404f54 <_nl_expand_alias+0x15c>
  404f3c:	8c5e3488 	lw	s8,13448(v0)
  404f40:	1040002f 	beqz	v0,405000 <_nl_expand_alias+0x208>
  404f44:	26f30001 	addiu	s3,s7,1
  404f48:	0274102b 	sltu	v0,s3,s4
  404f4c:	1040ffd3 	beqz	v0,404e9c <_nl_expand_alias+0xa4>
  404f50:	2417003a 	li	s7,58
  404f54:	0293b821 	addu	s7,s4,s3
  404f58:	02c03025 	move	a2,s6
  404f5c:	0017b842 	srl	s7,s7,0x1
  404f60:	02202025 	move	a0,s1
  404f64:	001718c0 	sll	v1,s7,0x3
  404f68:	0200c825 	move	t9,s0
  404f6c:	03c3a821 	addu	s5,s8,v1
  404f70:	041157bb 	bal	41ae60 <__strcasecmp_l>
  404f74:	8ea50000 	lw	a1,0(s5)
  404f78:	0441fff1 	bgez	v0,404f40 <_nl_expand_alias+0x148>
  404f7c:	00000000 	nop
  404f80:	1000fff1 	b	404f48 <_nl_expand_alias+0x150>
  404f84:	02e0a025 	move	s4,s7
  404f88:	10c00003 	beqz	a2,404f98 <_nl_expand_alias+0x1a0>
  404f8c:	8fa30020 	lw	v1,32(sp)
  404f90:	ae452a60 	sw	a1,10848(s2)
  404f94:	8fa30020 	lw	v1,32(sp)
  404f98:	00008025 	move	s0,zero
  404f9c:	0000000f 	sync
  404fa0:	c0622a74 	ll	v0,10868(v1)
  404fa4:	24010000 	li	at,0
  404fa8:	e0612a74 	sc	at,10868(v1)
  404fac:	1020fffc 	beqz	at,404fa0 <_nl_expand_alias+0x1a8>
  404fb0:	00000000 	nop
  404fb4:	28420002 	slti	v0,v0,2
  404fb8:	1040001d 	beqz	v0,405030 <_nl_expand_alias+0x238>
  404fbc:	8fa20020 	lw	v0,32(sp)
  404fc0:	8fbf004c 	lw	ra,76(sp)
  404fc4:	02001025 	move	v0,s0
  404fc8:	8fbe0048 	lw	s8,72(sp)
  404fcc:	8fb70044 	lw	s7,68(sp)
  404fd0:	8fb60040 	lw	s6,64(sp)
  404fd4:	8fb5003c 	lw	s5,60(sp)
  404fd8:	8fb40038 	lw	s4,56(sp)
  404fdc:	8fb30034 	lw	s3,52(sp)
  404fe0:	8fb20030 	lw	s2,48(sp)
  404fe4:	8fb1002c 	lw	s1,44(sp)
  404fe8:	8fb00028 	lw	s0,40(sp)
  404fec:	03e00008 	jr	ra
  404ff0:	27bd0050 	addiu	sp,sp,80
  404ff4:	24425560 	addiu	v0,v0,21856
  404ff8:	1000ff9c 	b	404e6c <_nl_expand_alias+0x74>
  404ffc:	ae422a60 	sw	v0,10848(s2)
  405000:	8eb00004 	lw	s0,4(s5)
  405004:	8fa30020 	lw	v1,32(sp)
  405008:	0000000f 	sync
  40500c:	c0622a74 	ll	v0,10868(v1)
  405010:	24010000 	li	at,0
  405014:	e0612a74 	sc	at,10868(v1)
  405018:	1020fffc 	beqz	at,40500c <_nl_expand_alias+0x214>
  40501c:	00000000 	nop
  405020:	28420002 	slti	v0,v0,2
  405024:	1440ffe7 	bnez	v0,404fc4 <_nl_expand_alias+0x1cc>
  405028:	8fbf004c 	lw	ra,76(sp)
  40502c:	8fa20020 	lw	v0,32(sp)
  405030:	24050081 	li	a1,129
  405034:	24060001 	li	a2,1
  405038:	00003825 	move	a3,zero
  40503c:	24442a74 	addiu	a0,v0,10868
  405040:	2402108e 	li	v0,4238
  405044:	0000000c 	syscall
  405048:	8fbf004c 	lw	ra,76(sp)
  40504c:	02001025 	move	v0,s0
  405050:	8fbe0048 	lw	s8,72(sp)
  405054:	8fb70044 	lw	s7,68(sp)
  405058:	8fb60040 	lw	s6,64(sp)
  40505c:	8fb5003c 	lw	s5,60(sp)
  405060:	8fb40038 	lw	s4,56(sp)
  405064:	8fb30034 	lw	s3,52(sp)
  405068:	8fb20030 	lw	s2,48(sp)
  40506c:	8fb1002c 	lw	s1,44(sp)
  405070:	8fb00028 	lw	s0,40(sp)
  405074:	03e00008 	jr	ra
  405078:	27bd0050 	addiu	sp,sp,80
  40507c:	3c190041 	lui	t9,0x41
  405080:	27392550 	addiu	t9,t9,9552
  405084:	04113532 	bal	412550 <__lll_lock_wait_private>
  405088:	24442a74 	addiu	a0,v0,10868
  40508c:	1000ff74 	b	404e60 <_nl_expand_alias+0x68>
  405090:	3c120049 	lui	s2,0x49
	...

004050a0 <_nl_make_l10nflist>:
  4050a0:	27bdff90 	addiu	sp,sp,-112
  4050a4:	3c1c004a 	lui	gp,0x4a
  4050a8:	00801025 	move	v0,a0
  4050ac:	afb00048 	sw	s0,72(sp)
  4050b0:	3c100042 	lui	s0,0x42
  4050b4:	afb60060 	sw	s6,96(sp)
  4050b8:	279ca2b0 	addiu	gp,gp,-23888
  4050bc:	afbe0068 	sw	s8,104(sp)
  4050c0:	26109d50 	addiu	s0,s0,-25264
  4050c4:	afb5005c 	sw	s5,92(sp)
  4050c8:	afb40058 	sw	s4,88(sp)
  4050cc:	0200c825 	move	t9,s0
  4050d0:	afb30054 	sw	s3,84(sp)
  4050d4:	00e09825 	move	s3,a3
  4050d8:	afb20050 	sw	s2,80(sp)
  4050dc:	32740004 	andi	s4,s3,0x4
  4050e0:	afbf006c 	sw	ra,108(sp)
  4050e4:	00c09025 	move	s2,a2
  4050e8:	afb70064 	sw	s7,100(sp)
  4050ec:	265e0002 	addiu	s8,s2,2
  4050f0:	afb1004c 	sw	s1,76(sp)
  4050f4:	afbc0030 	sw	gp,48(sp)
  4050f8:	afa20070 	sw	v0,112(sp)
  4050fc:	afa50074 	sw	a1,116(sp)
  405100:	8fb60080 	lw	s6,128(sp)
  405104:	04115312 	bal	419d50 <strlen>
  405108:	02c02025 	move	a0,s6
  40510c:	12800109 	beqz	s4,405534 <_nl_make_l10nflist+0x494>
  405110:	0040a825 	move	s5,v0
  405114:	0200c825 	move	t9,s0
  405118:	0411530d 	bal	419d50 <strlen>
  40511c:	8fa40084 	lw	a0,132(sp)
  405120:	24510001 	addiu	s1,v0,1
  405124:	32620002 	andi	v0,s3,0x2
  405128:	02bea821 	addu	s5,s5,s8
  40512c:	104000ff 	beqz	v0,40552c <_nl_make_l10nflist+0x48c>
  405130:	afa20038 	sw	v0,56(sp)
  405134:	0200c825 	move	t9,s0
  405138:	04115305 	bal	419d50 <strlen>
  40513c:	8fa40088 	lw	a0,136(sp)
  405140:	245e0001 	addiu	s8,v0,1
  405144:	32620001 	andi	v0,s3,0x1
  405148:	02358821 	addu	s1,s1,s5
  40514c:	104000f5 	beqz	v0,405524 <_nl_make_l10nflist+0x484>
  405150:	afa2003c 	sw	v0,60(sp)
  405154:	0200c825 	move	t9,s0
  405158:	041152fd 	bal	419d50 <strlen>
  40515c:	8fa4008c 	lw	a0,140(sp)
  405160:	24550001 	addiu	s5,v0,1
  405164:	32620008 	andi	v0,s3,0x8
  405168:	03d18821 	addu	s1,s8,s1
  40516c:	104000eb 	beqz	v0,40551c <_nl_make_l10nflist+0x47c>
  405170:	afa20040 	sw	v0,64(sp)
  405174:	0200c825 	move	t9,s0
  405178:	041152f5 	bal	419d50 <strlen>
  40517c:	8fa40090 	lw	a0,144(sp)
  405180:	245e0001 	addiu	s8,v0,1
  405184:	8fa40094 	lw	a0,148(sp)
  405188:	0200c825 	move	t9,s0
  40518c:	041152f0 	bal	419d50 <strlen>
  405190:	02358821 	addu	s1,s1,s5
  405194:	023e8821 	addu	s1,s1,s8
  405198:	8fbc0030 	lw	gp,48(sp)
  40519c:	02222021 	addu	a0,s1,v0
  4051a0:	8f9980cc 	lw	t9,-32564(gp)
  4051a4:	04114986 	bal	4177c0 <__libc_malloc>
  4051a8:	afa20044 	sw	v0,68(sp)
  4051ac:	8fbc0030 	lw	gp,48(sp)
  4051b0:	1040015c 	beqz	v0,405724 <_nl_make_l10nflist+0x684>
  4051b4:	00408825 	move	s1,v0
  4051b8:	8f99809c 	lw	t9,-32612(gp)
  4051bc:	02403025 	move	a2,s2
  4051c0:	8fa50074 	lw	a1,116(sp)
  4051c4:	0411573e 	bal	41aec0 <memcpy>
  4051c8:	00402025 	move	a0,v0
  4051cc:	1240000f 	beqz	s2,40520c <_nl_make_l10nflist+0x16c>
  4051d0:	8fbc0030 	lw	gp,48(sp)
  4051d4:	2415003a 	li	s5,58
  4051d8:	0240f025 	move	s8,s2
  4051dc:	0220b825 	move	s7,s1
  4051e0:	0200c825 	move	t9,s0
  4051e4:	041152da 	bal	419d50 <strlen>
  4051e8:	02e02025 	move	a0,s7
  4051ec:	00022827 	nor	a1,zero,v0
  4051f0:	8fbc0030 	lw	gp,48(sp)
  4051f4:	02e21021 	addu	v0,s7,v0
  4051f8:	03c5f021 	addu	s8,s8,a1
  4051fc:	13c00003 	beqz	s8,40520c <_nl_make_l10nflist+0x16c>
  405200:	24570001 	addiu	s7,v0,1
  405204:	1000fff6 	b	4051e0 <_nl_make_l10nflist+0x140>
  405208:	a0550000 	sb	s5,0(v0)
  40520c:	02322021 	addu	a0,s1,s2
  405210:	8f9980d8 	lw	t9,-32552(gp)
  405214:	2402002f 	li	v0,47
  405218:	02c02825 	move	a1,s6
  40521c:	041156f4 	bal	41adf0 <stpcpy>
  405220:	a082ffff 	sb	v0,-1(a0)
  405224:	168000db 	bnez	s4,405594 <_nl_make_l10nflist+0x4f4>
  405228:	8fbc0030 	lw	gp,48(sp)
  40522c:	8fa30038 	lw	v1,56(sp)
  405230:	146000d0 	bnez	v1,405574 <_nl_make_l10nflist+0x4d4>
  405234:	24440001 	addiu	a0,v0,1
  405238:	8fa3003c 	lw	v1,60(sp)
  40523c:	146000c6 	bnez	v1,405558 <_nl_make_l10nflist+0x4b8>
  405240:	8f9980d8 	lw	t9,-32552(gp)
  405244:	8fa30040 	lw	v1,64(sp)
  405248:	146000bc 	bnez	v1,40553c <_nl_make_l10nflist+0x49c>
  40524c:	8f9980d8 	lw	t9,-32552(gp)
  405250:	8fa30044 	lw	v1,68(sp)
  405254:	0000a825 	move	s5,zero
  405258:	8f99809c 	lw	t9,-32612(gp)
  40525c:	8fa50094 	lw	a1,148(sp)
  405260:	24660001 	addiu	a2,v1,1
  405264:	2403002f 	li	v1,47
  405268:	04115715 	bal	41aec0 <memcpy>
  40526c:	a0430000 	sb	v1,0(v0)
  405270:	8fa20070 	lw	v0,112(sp)
  405274:	8fbc0030 	lw	gp,48(sp)
  405278:	8c570000 	lw	s7,0(v0)
  40527c:	12e00011 	beqz	s7,4052c4 <_nl_make_l10nflist+0x224>
  405280:	afb70038 	sw	s7,56(sp)
  405284:	3c140042 	lui	s4,0x42
  405288:	26949850 	addiu	s4,s4,-26544
  40528c:	8ee40000 	lw	a0,0(s7)
  405290:	10800009 	beqz	a0,4052b8 <_nl_make_l10nflist+0x218>
  405294:	02202825 	move	a1,s1
  405298:	0280c825 	move	t9,s4
  40529c:	0411516c 	bal	419850 <strcmp>
  4052a0:	00000000 	nop
  4052a4:	1040008d 	beqz	v0,4054dc <_nl_make_l10nflist+0x43c>
  4052a8:	8fbc0030 	lw	gp,48(sp)
  4052ac:	04400006 	bltz	v0,4052c8 <_nl_make_l10nflist+0x228>
  4052b0:	8fa20098 	lw	v0,152(sp)
  4052b4:	02e0a825 	move	s5,s7
  4052b8:	8ef7000c 	lw	s7,12(s7)
  4052bc:	16e0fff3 	bnez	s7,40528c <_nl_make_l10nflist+0x1ec>
  4052c0:	00000000 	nop
  4052c4:	8fa20098 	lw	v0,152(sp)
  4052c8:	10400083 	beqz	v0,4054d8 <_nl_make_l10nflist+0x438>
  4052cc:	2404d555 	li	a0,-10923
  4052d0:	00131843 	sra	v1,s3,0x1
  4052d4:	32625555 	andi	v0,s3,0x5555
  4052d8:	00641824 	and	v1,v1,a0
  4052dc:	00621021 	addu	v0,v1,v0
  4052e0:	2404f333 	li	a0,-3277
  4052e4:	00021883 	sra	v1,v0,0x2
  4052e8:	30423333 	andi	v0,v0,0x3333
  4052ec:	00641824 	and	v1,v1,a0
  4052f0:	00621821 	addu	v1,v1,v0
  4052f4:	00031103 	sra	v0,v1,0x4
  4052f8:	00431021 	addu	v0,v0,v1
  4052fc:	7c541a00 	ext	s4,v0,0x8,0x4
  405300:	30420f0f 	andi	v0,v0,0xf0f
  405304:	02821021 	addu	v0,s4,v0
  405308:	304200ff 	andi	v0,v0,0xff
  40530c:	124000fc 	beqz	s2,405700 <_nl_make_l10nflist+0x660>
  405310:	afa2003c 	sw	v0,60(sp)
  405314:	8fb40074 	lw	s4,116(sp)
  405318:	0000b825 	move	s7,zero
  40531c:	0240f025 	move	s8,s2
  405320:	0200c825 	move	t9,s0
  405324:	0411528a 	bal	419d50 <strlen>
  405328:	02802025 	move	a0,s4
  40532c:	26f70001 	addiu	s7,s7,1
  405330:	00023027 	nor	a2,zero,v0
  405334:	8fbc0030 	lw	gp,48(sp)
  405338:	24420001 	addiu	v0,v0,1
  40533c:	03c6f021 	addu	s8,s8,a2
  405340:	17c0fff7 	bnez	s8,405320 <_nl_make_l10nflist+0x280>
  405344:	0282a021 	addu	s4,s4,v0
  405348:	8fa2003c 	lw	v0,60(sp)
  40534c:	00172040 	sll	a0,s7,0x1
  405350:	8f9980cc 	lw	t9,-32564(gp)
  405354:	00442004 	sllv	a0,a0,v0
  405358:	24840005 	addiu	a0,a0,5
  40535c:	04114918 	bal	4177c0 <__libc_malloc>
  405360:	00042080 	sll	a0,a0,0x2
  405364:	8fbc0030 	lw	gp,48(sp)
  405368:	104000f0 	beqz	v0,40572c <_nl_make_l10nflist+0x68c>
  40536c:	0040b825 	move	s7,v0
  405370:	ac510000 	sw	s1,0(v0)
  405374:	0240a025 	move	s4,s2
  405378:	8fb10074 	lw	s1,116(sp)
  40537c:	0200c825 	move	t9,s0
  405380:	04115273 	bal	419d50 <strlen>
  405384:	02202025 	move	a0,s1
  405388:	27de0001 	addiu	s8,s8,1
  40538c:	00022027 	nor	a0,zero,v0
  405390:	8fbc0030 	lw	gp,48(sp)
  405394:	24420001 	addiu	v0,v0,1
  405398:	0284a021 	addu	s4,s4,a0
  40539c:	1680fff7 	bnez	s4,40537c <_nl_make_l10nflist+0x2dc>
  4053a0:	02228821 	addu	s1,s1,v0
  4053a4:	24020001 	li	v0,1
  4053a8:	13c200ca 	beq	s8,v0,4056d4 <_nl_make_l10nflist+0x634>
  4053ac:	00000000 	nop
  4053b0:	aee20004 	sw	v0,4(s7)
  4053b4:	12a000cd 	beqz	s5,4056ec <_nl_make_l10nflist+0x64c>
  4053b8:	aee00008 	sw	zero,8(s7)
  4053bc:	8ea2000c 	lw	v0,12(s5)
  4053c0:	aee2000c 	sw	v0,12(s7)
  4053c4:	aeb7000c 	sw	s7,12(s5)
  4053c8:	12400010 	beqz	s2,40540c <_nl_make_l10nflist+0x36c>
  4053cc:	0000a825 	move	s5,zero
  4053d0:	8fb10074 	lw	s1,116(sp)
  4053d4:	0240a025 	move	s4,s2
  4053d8:	0200c825 	move	t9,s0
  4053dc:	0411525c 	bal	419d50 <strlen>
  4053e0:	02202025 	move	a0,s1
  4053e4:	26b50001 	addiu	s5,s5,1
  4053e8:	00022027 	nor	a0,zero,v0
  4053ec:	8fbc0030 	lw	gp,48(sp)
  4053f0:	24420001 	addiu	v0,v0,1
  4053f4:	0284a021 	addu	s4,s4,a0
  4053f8:	1680fff7 	bnez	s4,4053d8 <_nl_make_l10nflist+0x338>
  4053fc:	02228821 	addu	s1,s1,v0
  405400:	24020001 	li	v0,1
  405404:	12a20002 	beq	s5,v0,405410 <_nl_make_l10nflist+0x370>
  405408:	2675ffff 	addiu	s5,s3,-1
  40540c:	0260a825 	move	s5,s3
  405410:	06a0000b 	bltz	s5,405440 <_nl_make_l10nflist+0x3a0>
  405414:	00008825 	move	s1,zero
  405418:	8fa20074 	lw	v0,116(sp)
  40541c:	2409ffff 	li	t1,-1
  405420:	0013a027 	nor	s4,zero,s3
  405424:	00525021 	addu	t2,v0,s2
  405428:	02b41024 	and	v0,s5,s4
  40542c:	10400061 	beqz	v0,4055b4 <_nl_make_l10nflist+0x514>
  405430:	0000f025 	move	s8,zero
  405434:	26b5ffff 	addiu	s5,s5,-1
  405438:	16a9fffc 	bne	s5,t1,40542c <_nl_make_l10nflist+0x38c>
  40543c:	02b41024 	and	v0,s5,s4
  405440:	3c050046 	lui	a1,0x46
  405444:	8fa40094 	lw	a0,148(sp)
  405448:	3c190042 	lui	t9,0x42
  40544c:	2406000b 	li	a2,11
  405450:	27399e10 	addiu	t9,t9,-25072
  405454:	0411526e 	bal	419e10 <strncmp>
  405458:	24a555b8 	addiu	a1,a1,21944
  40545c:	1440000e 	bnez	v0,405498 <_nl_make_l10nflist+0x3f8>
  405460:	26220004 	addiu	v0,s1,4
  405464:	0660000c 	bltz	s3,405498 <_nl_make_l10nflist+0x3f8>
  405468:	3c150046 	lui	s5,0x46
  40546c:	24100001 	li	s0,1
  405470:	26b555c4 	addiu	s5,s5,21956
  405474:	2414ffff 	li	s4,-1
  405478:	00139027 	nor	s2,zero,s3
  40547c:	02721024 	and	v0,s3,s2
  405480:	1040007d 	beqz	v0,405678 <_nl_make_l10nflist+0x5d8>
  405484:	8fa20094 	lw	v0,148(sp)
  405488:	2673ffff 	addiu	s3,s3,-1
  40548c:	1674fffc 	bne	s3,s4,405480 <_nl_make_l10nflist+0x3e0>
  405490:	02721024 	and	v0,s3,s2
  405494:	26220004 	addiu	v0,s1,4
  405498:	8fbf006c 	lw	ra,108(sp)
  40549c:	8fbe0068 	lw	s8,104(sp)
  4054a0:	00021080 	sll	v0,v0,0x2
  4054a4:	8fb60060 	lw	s6,96(sp)
  4054a8:	8fb5005c 	lw	s5,92(sp)
  4054ac:	02e21021 	addu	v0,s7,v0
  4054b0:	8fb40058 	lw	s4,88(sp)
  4054b4:	8fb30054 	lw	s3,84(sp)
  4054b8:	8fb20050 	lw	s2,80(sp)
  4054bc:	8fb1004c 	lw	s1,76(sp)
  4054c0:	8fb00048 	lw	s0,72(sp)
  4054c4:	ac400000 	sw	zero,0(v0)
  4054c8:	02e01025 	move	v0,s7
  4054cc:	8fb70064 	lw	s7,100(sp)
  4054d0:	03e00008 	jr	ra
  4054d4:	27bd0070 	addiu	sp,sp,112
  4054d8:	0000b825 	move	s7,zero
  4054dc:	8f998054 	lw	t9,-32684(gp)
  4054e0:	04114a84 	bal	417ef4 <__free>
  4054e4:	02202025 	move	a0,s1
  4054e8:	8fbf006c 	lw	ra,108(sp)
  4054ec:	02e01025 	move	v0,s7
  4054f0:	8fbe0068 	lw	s8,104(sp)
  4054f4:	8fb70064 	lw	s7,100(sp)
  4054f8:	8fb60060 	lw	s6,96(sp)
  4054fc:	8fb5005c 	lw	s5,92(sp)
  405500:	8fb40058 	lw	s4,88(sp)
  405504:	8fb30054 	lw	s3,84(sp)
  405508:	8fb20050 	lw	s2,80(sp)
  40550c:	8fb1004c 	lw	s1,76(sp)
  405510:	8fb00048 	lw	s0,72(sp)
  405514:	03e00008 	jr	ra
  405518:	27bd0070 	addiu	sp,sp,112
  40551c:	1000ff19 	b	405184 <_nl_make_l10nflist+0xe4>
  405520:	0000f025 	move	s8,zero
  405524:	1000ff0f 	b	405164 <_nl_make_l10nflist+0xc4>
  405528:	0000a825 	move	s5,zero
  40552c:	1000ff05 	b	405144 <_nl_make_l10nflist+0xa4>
  405530:	0000f025 	move	s8,zero
  405534:	1000fefb 	b	405124 <_nl_make_l10nflist+0x84>
  405538:	00008825 	move	s1,zero
  40553c:	24030040 	li	v1,64
  405540:	8fa50090 	lw	a1,144(sp)
  405544:	0411562a 	bal	41adf0 <stpcpy>
  405548:	a0430000 	sb	v1,0(v0)
  40554c:	8fbc0030 	lw	gp,48(sp)
  405550:	1000ff3f 	b	405250 <_nl_make_l10nflist+0x1b0>
  405554:	24440001 	addiu	a0,v0,1
  405558:	2403002e 	li	v1,46
  40555c:	8fa5008c 	lw	a1,140(sp)
  405560:	04115623 	bal	41adf0 <stpcpy>
  405564:	a0430000 	sb	v1,0(v0)
  405568:	8fbc0030 	lw	gp,48(sp)
  40556c:	1000ff35 	b	405244 <_nl_make_l10nflist+0x1a4>
  405570:	24440001 	addiu	a0,v0,1
  405574:	8f9980d8 	lw	t9,-32552(gp)
  405578:	2403002e 	li	v1,46
  40557c:	8fa50088 	lw	a1,136(sp)
  405580:	0411561b 	bal	41adf0 <stpcpy>
  405584:	a0430000 	sb	v1,0(v0)
  405588:	8fbc0030 	lw	gp,48(sp)
  40558c:	1000ff2a 	b	405238 <_nl_make_l10nflist+0x198>
  405590:	24440001 	addiu	a0,v0,1
  405594:	8f9980d8 	lw	t9,-32552(gp)
  405598:	2403005f 	li	v1,95
  40559c:	8fa50084 	lw	a1,132(sp)
  4055a0:	24440001 	addiu	a0,v0,1
  4055a4:	04115612 	bal	41adf0 <stpcpy>
  4055a8:	a0430000 	sb	v1,0(v0)
  4055ac:	1000ff1f 	b	40522c <_nl_make_l10nflist+0x18c>
  4055b0:	8fbc0030 	lw	gp,48(sp)
  4055b4:	13c0002c 	beqz	s8,405668 <_nl_make_l10nflist+0x5c8>
  4055b8:	03ca102b 	sltu	v0,s8,t2
  4055bc:	8f9980f4 	lw	t9,-32524(gp)
  4055c0:	1040ff9c 	beqz	v0,405434 <_nl_make_l10nflist+0x394>
  4055c4:	03c02025 	move	a0,s8
  4055c8:	041151e1 	bal	419d50 <strlen>
  4055cc:	afaa0038 	sw	t2,56(sp)
  4055d0:	2409ffff 	li	t1,-1
  4055d4:	24420001 	addiu	v0,v0,1
  4055d8:	8faa0038 	lw	t2,56(sp)
  4055dc:	03c2f021 	addu	s8,s8,v0
  4055e0:	03ca102b 	sltu	v0,s8,t2
  4055e4:	1040ff93 	beqz	v0,405434 <_nl_make_l10nflist+0x394>
  4055e8:	8fbc0030 	lw	gp,48(sp)
  4055ec:	afaa0038 	sw	t2,56(sp)
  4055f0:	0200c825 	move	t9,s0
  4055f4:	041151d6 	bal	419d50 <strlen>
  4055f8:	03c02025 	move	a0,s8
  4055fc:	24030001 	li	v1,1
  405600:	24460001 	addiu	a2,v0,1
  405604:	8fa20094 	lw	v0,148(sp)
  405608:	8fa40070 	lw	a0,112(sp)
  40560c:	26310001 	addiu	s1,s1,1
  405610:	afa30028 	sw	v1,40(sp)
  405614:	02a03825 	move	a3,s5
  405618:	afa20024 	sw	v0,36(sp)
  40561c:	03c02825 	move	a1,s8
  405620:	8fa20090 	lw	v0,144(sp)
  405624:	afb60010 	sw	s6,16(sp)
  405628:	afa20020 	sw	v0,32(sp)
  40562c:	8fa2008c 	lw	v0,140(sp)
  405630:	afa2001c 	sw	v0,28(sp)
  405634:	8fa20088 	lw	v0,136(sp)
  405638:	afa20018 	sw	v0,24(sp)
  40563c:	8fa20084 	lw	v0,132(sp)
  405640:	0c101428 	jal	4050a0 <_nl_make_l10nflist>
  405644:	afa20014 	sw	v0,20(sp)
  405648:	00112080 	sll	a0,s1,0x2
  40564c:	8faa0038 	lw	t2,56(sp)
  405650:	2409ffff 	li	t1,-1
  405654:	02e42021 	addu	a0,s7,a0
  405658:	8fbc0030 	lw	gp,48(sp)
  40565c:	ac82000c 	sw	v0,12(a0)
  405660:	17c0ffd6 	bnez	s8,4055bc <_nl_make_l10nflist+0x51c>
  405664:	03ca102b 	sltu	v0,s8,t2
  405668:	1240ff72 	beqz	s2,405434 <_nl_make_l10nflist+0x394>
  40566c:	8fbe0074 	lw	s8,116(sp)
  405670:	1000ffdf 	b	4055f0 <_nl_make_l10nflist+0x550>
  405674:	afaa0038 	sw	t2,56(sp)
  405678:	263e0001 	addiu	s8,s1,1
  40567c:	8fa40070 	lw	a0,112(sp)
  405680:	26310004 	addiu	s1,s1,4
  405684:	2406001b 	li	a2,27
  405688:	afb00028 	sw	s0,40(sp)
  40568c:	afa20024 	sw	v0,36(sp)
  405690:	02603825 	move	a3,s3
  405694:	8fa20090 	lw	v0,144(sp)
  405698:	02a02825 	move	a1,s5
  40569c:	afb60010 	sw	s6,16(sp)
  4056a0:	afa20020 	sw	v0,32(sp)
  4056a4:	8fa2008c 	lw	v0,140(sp)
  4056a8:	afa2001c 	sw	v0,28(sp)
  4056ac:	8fa20088 	lw	v0,136(sp)
  4056b0:	afa20018 	sw	v0,24(sp)
  4056b4:	8fa20084 	lw	v0,132(sp)
  4056b8:	0c101428 	jal	4050a0 <_nl_make_l10nflist>
  4056bc:	afa20014 	sw	v0,20(sp)
  4056c0:	00112080 	sll	a0,s1,0x2
  4056c4:	03c08825 	move	s1,s8
  4056c8:	02e42021 	addu	a0,s7,a0
  4056cc:	1000ff6e 	b	405488 <_nl_make_l10nflist+0x3e8>
  4056d0:	ac820000 	sw	v0,0(a0)
  4056d4:	32620003 	andi	v0,s3,0x3
  4056d8:	aee00008 	sw	zero,8(s7)
  4056dc:	38420003 	xori	v0,v0,0x3
  4056e0:	2c420001 	sltiu	v0,v0,1
  4056e4:	16a0ff35 	bnez	s5,4053bc <_nl_make_l10nflist+0x31c>
  4056e8:	aee20004 	sw	v0,4(s7)
  4056ec:	8fa20038 	lw	v0,56(sp)
  4056f0:	aee2000c 	sw	v0,12(s7)
  4056f4:	8fa20070 	lw	v0,112(sp)
  4056f8:	1000ff33 	b	4053c8 <_nl_make_l10nflist+0x328>
  4056fc:	ac570000 	sw	s7,0(v0)
  405700:	8f9980cc 	lw	t9,-32564(gp)
  405704:	0411482e 	bal	4177c0 <__libc_malloc>
  405708:	24040014 	li	a0,20
  40570c:	8fbc0030 	lw	gp,48(sp)
  405710:	10400006 	beqz	v0,40572c <_nl_make_l10nflist+0x68c>
  405714:	0040b825 	move	s7,v0
  405718:	24020001 	li	v0,1
  40571c:	1000ff24 	b	4053b0 <_nl_make_l10nflist+0x310>
  405720:	aef10000 	sw	s1,0(s7)
  405724:	1000ff70 	b	4054e8 <_nl_make_l10nflist+0x448>
  405728:	0000b825 	move	s7,zero
  40572c:	8f998054 	lw	t9,-32684(gp)
  405730:	02202025 	move	a0,s1
  405734:	041149ef 	bal	417ef4 <__free>
  405738:	0000b825 	move	s7,zero
  40573c:	1000ff6b 	b	4054ec <_nl_make_l10nflist+0x44c>
  405740:	8fbf006c 	lw	ra,108(sp)

00405744 <_nl_normalize_codeset>:
  405744:	3c1c004a 	lui	gp,0x4a
  405748:	27bdffd0 	addiu	sp,sp,-48
  40574c:	279ca2b0 	addiu	gp,gp,-23888
  405750:	afbf002c 	sw	ra,44(sp)
  405754:	afb30028 	sw	s3,40(sp)
  405758:	afb20024 	sw	s2,36(sp)
  40575c:	afb10020 	sw	s1,32(sp)
  405760:	afb0001c 	sw	s0,28(sp)
  405764:	10a00053 	beqz	a1,4058b4 <_nl_normalize_codeset+0x170>
  405768:	afbc0010 	sw	gp,16(sp)
  40576c:	3c130049 	lui	s3,0x49
  405770:	00a43821 	addu	a3,a1,a0
  405774:	26730f6c 	addiu	s3,s3,3948
  405778:	00809025 	move	s2,a0
  40577c:	00a08825 	move	s1,a1
  405780:	8e700034 	lw	s0,52(s3)
  405784:	24050001 	li	a1,1
  405788:	00002025 	move	a0,zero
  40578c:	02401825 	move	v1,s2
  405790:	90620000 	lbu	v0,0(v1)
  405794:	24630001 	addiu	v1,v1,1
  405798:	00023040 	sll	a2,v0,0x1
  40579c:	2442ffd0 	addiu	v0,v0,-48
  4057a0:	02063021 	addu	a2,s0,a2
  4057a4:	94c60000 	lhu	a2,0(a2)
  4057a8:	30c60800 	andi	a2,a2,0x800
  4057ac:	10c00003 	beqz	a2,4057bc <_nl_normalize_codeset+0x78>
  4057b0:	2c42000a 	sltiu	v0,v0,10
  4057b4:	0002280a 	movz	a1,zero,v0
  4057b8:	24840001 	addiu	a0,a0,1
  4057bc:	14e3fff4 	bne	a3,v1,405790 <_nl_normalize_codeset+0x4c>
  4057c0:	00000000 	nop
  4057c4:	14a0002a 	bnez	a1,405870 <_nl_normalize_codeset+0x12c>
  4057c8:	8f9980cc 	lw	t9,-32564(gp)
  4057cc:	041147fc 	bal	4177c0 <__libc_malloc>
  4057d0:	24840001 	addiu	a0,a0,1
  4057d4:	1040002f 	beqz	v0,405894 <_nl_normalize_codeset+0x150>
  4057d8:	00404825 	move	t1,v0
  4057dc:	8e650038 	lw	a1,56(s3)
  4057e0:	10000008 	b	405804 <_nl_normalize_codeset+0xc0>
  4057e4:	00003025 	move	a2,zero
  4057e8:	8d030000 	lw	v1,0(t0)
  4057ec:	25290001 	addiu	t1,t1,1
  4057f0:	a123ffff 	sb	v1,-1(t1)
  4057f4:	24c60001 	addiu	a2,a2,1
  4057f8:	00d1182b 	sltu	v1,a2,s1
  4057fc:	10600014 	beqz	v1,405850 <_nl_normalize_codeset+0x10c>
  405800:	00000000 	nop
  405804:	02461821 	addu	v1,s2,a2
  405808:	80640000 	lb	a0,0(v1)
  40580c:	308300ff 	andi	v1,a0,0xff
  405810:	00033840 	sll	a3,v1,0x1
  405814:	00034080 	sll	t0,v1,0x2
  405818:	02073821 	addu	a3,s0,a3
  40581c:	2463ffd0 	addiu	v1,v1,-48
  405820:	00a84021 	addu	t0,a1,t0
  405824:	94e70000 	lhu	a3,0(a3)
  405828:	30e70004 	andi	a3,a3,0x4
  40582c:	14e0ffee 	bnez	a3,4057e8 <_nl_normalize_codeset+0xa4>
  405830:	2c63000a 	sltiu	v1,v1,10
  405834:	1060ffef 	beqz	v1,4057f4 <_nl_normalize_codeset+0xb0>
  405838:	00000000 	nop
  40583c:	24c60001 	addiu	a2,a2,1
  405840:	a1240000 	sb	a0,0(t1)
  405844:	00d1182b 	sltu	v1,a2,s1
  405848:	1460ffee 	bnez	v1,405804 <_nl_normalize_codeset+0xc0>
  40584c:	25290001 	addiu	t1,t1,1
  405850:	a1200000 	sb	zero,0(t1)
  405854:	8fbf002c 	lw	ra,44(sp)
  405858:	8fb30028 	lw	s3,40(sp)
  40585c:	8fb20024 	lw	s2,36(sp)
  405860:	8fb10020 	lw	s1,32(sp)
  405864:	8fb0001c 	lw	s0,28(sp)
  405868:	03e00008 	jr	ra
  40586c:	27bd0030 	addiu	sp,sp,48
  405870:	041147d3 	bal	4177c0 <__libc_malloc>
  405874:	24840004 	addiu	a0,a0,4
  405878:	10400006 	beqz	v0,405894 <_nl_normalize_codeset+0x150>
  40587c:	3c036973 	lui	v1,0x6973
  405880:	8e700034 	lw	s0,52(s3)
  405884:	24490003 	addiu	t1,v0,3
  405888:	24636f00 	addiu	v1,v1,28416
  40588c:	1000ffd3 	b	4057dc <_nl_normalize_codeset+0x98>
  405890:	ac430000 	sw	v1,0(v0)
  405894:	8fbf002c 	lw	ra,44(sp)
  405898:	00001025 	move	v0,zero
  40589c:	8fb30028 	lw	s3,40(sp)
  4058a0:	8fb20024 	lw	s2,36(sp)
  4058a4:	8fb10020 	lw	s1,32(sp)
  4058a8:	8fb0001c 	lw	s0,28(sp)
  4058ac:	03e00008 	jr	ra
  4058b0:	27bd0030 	addiu	sp,sp,48
  4058b4:	8f9980cc 	lw	t9,-32564(gp)
  4058b8:	041147c1 	bal	4177c0 <__libc_malloc>
  4058bc:	24040004 	li	a0,4
  4058c0:	1040fff4 	beqz	v0,405894 <_nl_normalize_codeset+0x150>
  4058c4:	3c036973 	lui	v1,0x6973
  4058c8:	24490003 	addiu	t1,v0,3
  4058cc:	24636f00 	addiu	v1,v1,28416
  4058d0:	1000ffdf 	b	405850 <_nl_normalize_codeset+0x10c>
  4058d4:	ac430000 	sw	v1,0(v0)
	...

004058e0 <_nl_explode_name>:
  4058e0:	27bdffc8 	addiu	sp,sp,-56
  4058e4:	3c1c004a 	lui	gp,0x4a
  4058e8:	afb30028 	sw	s3,40(sp)
  4058ec:	279ca2b0 	addiu	gp,gp,-23888
  4058f0:	afb10020 	sw	s1,32(sp)
  4058f4:	afbf0034 	sw	ra,52(sp)
  4058f8:	afb50030 	sw	s5,48(sp)
  4058fc:	afb4002c 	sw	s4,44(sp)
  405900:	afb20024 	sw	s2,36(sp)
  405904:	afb0001c 	sw	s0,28(sp)
  405908:	afbc0010 	sw	gp,16(sp)
  40590c:	acc00000 	sw	zero,0(a2)
  405910:	ace00000 	sw	zero,0(a3)
  405914:	8fb30048 	lw	s3,72(sp)
  405918:	8fb1004c 	lw	s1,76(sp)
  40591c:	ae600000 	sw	zero,0(s3)
  405920:	ae200000 	sw	zero,0(s1)
  405924:	aca40000 	sw	a0,0(a1)
  405928:	80820000 	lb	v0,0(a0)
  40592c:	10400067 	beqz	v0,405acc <_nl_explode_name+0x1ec>
  405930:	2403005f 	li	v1,95
  405934:	24050040 	li	a1,64
  405938:	2408002e 	li	t0,46
  40593c:	10000008 	b	405960 <_nl_explode_name+0x80>
  405940:	00808025 	move	s0,a0
  405944:	10450038 	beq	v0,a1,405a28 <_nl_explode_name+0x148>
  405948:	00000000 	nop
  40594c:	10480036 	beq	v0,t0,405a28 <_nl_explode_name+0x148>
  405950:	00000000 	nop
  405954:	82020001 	lb	v0,1(s0)
  405958:	1040005c 	beqz	v0,405acc <_nl_explode_name+0x1ec>
  40595c:	26100001 	addiu	s0,s0,1
  405960:	1443fff8 	bne	v0,v1,405944 <_nl_explode_name+0x64>
  405964:	00000000 	nop
  405968:	10900058 	beq	a0,s0,405acc <_nl_explode_name+0x1ec>
  40596c:	26030001 	addiu	v1,s0,1
  405970:	a2000000 	sb	zero,0(s0)
  405974:	ace30000 	sw	v1,0(a3)
  405978:	82020001 	lb	v0,1(s0)
  40597c:	10400068 	beqz	v0,405b20 <_nl_explode_name+0x240>
  405980:	2404002e 	li	a0,46
  405984:	10000006 	b	4059a0 <_nl_explode_name+0xc0>
  405988:	24050040 	li	a1,64
  40598c:	10450007 	beq	v0,a1,4059ac <_nl_explode_name+0xcc>
  405990:	2402002e 	li	v0,46
  405994:	80620001 	lb	v0,1(v1)
  405998:	10400061 	beqz	v0,405b20 <_nl_explode_name+0x240>
  40599c:	24630001 	addiu	v1,v1,1
  4059a0:	1444fffa 	bne	v0,a0,40598c <_nl_explode_name+0xac>
  4059a4:	00608025 	move	s0,v1
  4059a8:	2402002e 	li	v0,46
  4059ac:	82050000 	lb	a1,0(s0)
  4059b0:	10a20022 	beq	a1,v0,405a3c <_nl_explode_name+0x15c>
  4059b4:	24120004 	li	s2,4
  4059b8:	24020040 	li	v0,64
  4059bc:	14a20044 	bne	a1,v0,405ad0 <_nl_explode_name+0x1f0>
  4059c0:	26020001 	addiu	v0,s0,1
  4059c4:	a2000000 	sb	zero,0(s0)
  4059c8:	acc20000 	sw	v0,0(a2)
  4059cc:	82020001 	lb	v0,1(s0)
  4059d0:	10400040 	beqz	v0,405ad4 <_nl_explode_name+0x1f4>
  4059d4:	8e700000 	lw	s0,0(s3)
  4059d8:	8ce20000 	lw	v0,0(a3)
  4059dc:	14400040 	bnez	v0,405ae0 <_nl_explode_name+0x200>
  4059e0:	36520008 	ori	s2,s2,0x8
  4059e4:	12000007 	beqz	s0,405a04 <_nl_explode_name+0x124>
  4059e8:	8fbf0034 	lw	ra,52(sp)
  4059ec:	82020000 	lb	v0,0(s0)
  4059f0:	14400004 	bnez	v0,405a04 <_nl_explode_name+0x124>
  4059f4:	8fbf0034 	lw	ra,52(sp)
  4059f8:	2402fffd 	li	v0,-3
  4059fc:	02429024 	and	s2,s2,v0
  405a00:	8fbf0034 	lw	ra,52(sp)
  405a04:	02401025 	move	v0,s2
  405a08:	8fb50030 	lw	s5,48(sp)
  405a0c:	8fb4002c 	lw	s4,44(sp)
  405a10:	8fb30028 	lw	s3,40(sp)
  405a14:	8fb20024 	lw	s2,36(sp)
  405a18:	8fb10020 	lw	s1,32(sp)
  405a1c:	8fb0001c 	lw	s0,28(sp)
  405a20:	03e00008 	jr	ra
  405a24:	27bd0038 	addiu	sp,sp,56
  405a28:	10900028 	beq	a0,s0,405acc <_nl_explode_name+0x1ec>
  405a2c:	2402002e 	li	v0,46
  405a30:	82050000 	lb	a1,0(s0)
  405a34:	14a2ffe0 	bne	a1,v0,4059b8 <_nl_explode_name+0xd8>
  405a38:	00009025 	move	s2,zero
  405a3c:	26040001 	addiu	a0,s0,1
  405a40:	a2000000 	sb	zero,0(s0)
  405a44:	ae640000 	sw	a0,0(s3)
  405a48:	82050001 	lb	a1,1(s0)
  405a4c:	10a00042 	beqz	a1,405b58 <_nl_explode_name+0x278>
  405a50:	36540002 	ori	s4,s2,0x2
  405a54:	24030040 	li	v1,64
  405a58:	00808025 	move	s0,a0
  405a5c:	10000004 	b	405a70 <_nl_explode_name+0x190>
  405a60:	00a01025 	move	v0,a1
  405a64:	82020001 	lb	v0,1(s0)
  405a68:	10400022 	beqz	v0,405af4 <_nl_explode_name+0x214>
  405a6c:	26100001 	addiu	s0,s0,1
  405a70:	1443fffc 	bne	v0,v1,405a64 <_nl_explode_name+0x184>
  405a74:	00000000 	nop
  405a78:	10900033 	beq	a0,s0,405b48 <_nl_explode_name+0x268>
  405a7c:	8f9980f8 	lw	t9,-32520(gp)
  405a80:	02042823 	subu	a1,s0,a0
  405a84:	afa70044 	sw	a3,68(sp)
  405a88:	0411ff2e 	bal	405744 <_nl_normalize_codeset>
  405a8c:	afa60040 	sw	a2,64(sp)
  405a90:	0040a825 	move	s5,v0
  405a94:	10400032 	beqz	v0,405b60 <_nl_explode_name+0x280>
  405a98:	ae220000 	sw	v0,0(s1)
  405a9c:	3c190042 	lui	t9,0x42
  405aa0:	8e640000 	lw	a0,0(s3)
  405aa4:	27399850 	addiu	t9,t9,-26544
  405aa8:	04114f69 	bal	419850 <strcmp>
  405aac:	00402825 	move	a1,v0
  405ab0:	8fbc0010 	lw	gp,16(sp)
  405ab4:	8fa60040 	lw	a2,64(sp)
  405ab8:	1040001b 	beqz	v0,405b28 <_nl_explode_name+0x248>
  405abc:	8fa70044 	lw	a3,68(sp)
  405ac0:	82050000 	lb	a1,0(s0)
  405ac4:	1000ffbc 	b	4059b8 <_nl_explode_name+0xd8>
  405ac8:	36520003 	ori	s2,s2,0x3
  405acc:	00009025 	move	s2,zero
  405ad0:	8e700000 	lw	s0,0(s3)
  405ad4:	8ce20000 	lw	v0,0(a3)
  405ad8:	1040ffc2 	beqz	v0,4059e4 <_nl_explode_name+0x104>
  405adc:	00000000 	nop
  405ae0:	80420000 	lb	v0,0(v0)
  405ae4:	1440ffbf 	bnez	v0,4059e4 <_nl_explode_name+0x104>
  405ae8:	2402fffb 	li	v0,-5
  405aec:	1000ffbd 	b	4059e4 <_nl_explode_name+0x104>
  405af0:	02429024 	and	s2,s2,v0
  405af4:	1490ffe2 	bne	a0,s0,405a80 <_nl_explode_name+0x1a0>
  405af8:	8f9980f8 	lw	t9,-32520(gp)
  405afc:	8ce20000 	lw	v0,0(a3)
  405b00:	10400013 	beqz	v0,405b50 <_nl_explode_name+0x270>
  405b04:	00000000 	nop
  405b08:	80420000 	lb	v0,0(v0)
  405b0c:	14400010 	bnez	v0,405b50 <_nl_explode_name+0x270>
  405b10:	2402fffb 	li	v0,-5
  405b14:	02809025 	move	s2,s4
  405b18:	1000ffb2 	b	4059e4 <_nl_explode_name+0x104>
  405b1c:	02429024 	and	s2,s2,v0
  405b20:	1000ffeb 	b	405ad0 <_nl_explode_name+0x1f0>
  405b24:	24120004 	li	s2,4
  405b28:	8f998054 	lw	t9,-32684(gp)
  405b2c:	02a02025 	move	a0,s5
  405b30:	041148f0 	bal	417ef4 <__free>
  405b34:	02809025 	move	s2,s4
  405b38:	82050000 	lb	a1,0(s0)
  405b3c:	8fa60040 	lw	a2,64(sp)
  405b40:	1000ff9d 	b	4059b8 <_nl_explode_name+0xd8>
  405b44:	8fa70044 	lw	a3,68(sp)
  405b48:	1000ff9b 	b	4059b8 <_nl_explode_name+0xd8>
  405b4c:	02809025 	move	s2,s4
  405b50:	1000ffa6 	b	4059ec <_nl_explode_name+0x10c>
  405b54:	02809025 	move	s2,s4
  405b58:	1000ffdd 	b	405ad0 <_nl_explode_name+0x1f0>
  405b5c:	02809025 	move	s2,s4
  405b60:	1000ffa7 	b	405a00 <_nl_explode_name+0x120>
  405b64:	2412ffff 	li	s2,-1
	...

00405b70 <__gettext_free_exp>:
  405b70:	10800023 	beqz	a0,405c00 <__gettext_free_exp+0x90>
  405b74:	3c1c004a 	lui	gp,0x4a
  405b78:	8c820000 	lw	v0,0(a0)
  405b7c:	27bdffe0 	addiu	sp,sp,-32
  405b80:	279ca2b0 	addiu	gp,gp,-23888
  405b84:	24030002 	li	v1,2
  405b88:	afb00018 	sw	s0,24(sp)
  405b8c:	00808025 	move	s0,a0
  405b90:	afbf001c 	sw	ra,28(sp)
  405b94:	1043000f 	beq	v0,v1,405bd4 <__gettext_free_exp+0x64>
  405b98:	afbc0010 	sw	gp,16(sp)
  405b9c:	24030003 	li	v1,3
  405ba0:	1043000a 	beq	v0,v1,405bcc <__gettext_free_exp+0x5c>
  405ba4:	00000000 	nop
  405ba8:	24030001 	li	v1,1
  405bac:	1043000b 	beq	v0,v1,405bdc <__gettext_free_exp+0x6c>
  405bb0:	00000000 	nop
  405bb4:	8fbf001c 	lw	ra,28(sp)
  405bb8:	02002025 	move	a0,s0
  405bbc:	8f998054 	lw	t9,-32684(gp)
  405bc0:	8fb00018 	lw	s0,24(sp)
  405bc4:	100048cb 	b	417ef4 <__free>
  405bc8:	27bd0020 	addiu	sp,sp,32
  405bcc:	0c1016dc 	jal	405b70 <__gettext_free_exp>
  405bd0:	8c840010 	lw	a0,16(a0)
  405bd4:	0c1016dc 	jal	405b70 <__gettext_free_exp>
  405bd8:	8e04000c 	lw	a0,12(s0)
  405bdc:	0c1016dc 	jal	405b70 <__gettext_free_exp>
  405be0:	8e040008 	lw	a0,8(s0)
  405be4:	02002025 	move	a0,s0
  405be8:	8fbc0010 	lw	gp,16(sp)
  405bec:	8fbf001c 	lw	ra,28(sp)
  405bf0:	8fb00018 	lw	s0,24(sp)
  405bf4:	8f998054 	lw	t9,-32684(gp)
  405bf8:	100048be 	b	417ef4 <__free>
  405bfc:	27bd0020 	addiu	sp,sp,32
  405c00:	03e00008 	jr	ra
  405c04:	00000000 	nop

00405c08 <new_exp>:
  405c08:	3c1c004a 	lui	gp,0x4a
  405c0c:	27bdffd8 	addiu	sp,sp,-40
  405c10:	279ca2b0 	addiu	gp,gp,-23888
  405c14:	afb20020 	sw	s2,32(sp)
  405c18:	00a09025 	move	s2,a1
  405c1c:	afbf0024 	sw	ra,36(sp)
  405c20:	afb1001c 	sw	s1,28(sp)
  405c24:	afb00018 	sw	s0,24(sp)
  405c28:	1080002d 	beqz	a0,405ce0 <new_exp+0xd8>
  405c2c:	afbc0010 	sw	gp,16(sp)
  405c30:	2483ffff 	addiu	v1,a0,-1
  405c34:	00808025 	move	s0,a0
  405c38:	00c08825 	move	s1,a2
  405c3c:	10000003 	b	405c4c <new_exp+0x44>
  405c40:	2404ffff 	li	a0,-1
  405c44:	10640014 	beq	v1,a0,405c98 <new_exp+0x90>
  405c48:	8f9980cc 	lw	t9,-32564(gp)
  405c4c:	00031080 	sll	v0,v1,0x2
  405c50:	02221021 	addu	v0,s1,v0
  405c54:	8c420000 	lw	v0,0(v0)
  405c58:	1440fffa 	bnez	v0,405c44 <new_exp+0x3c>
  405c5c:	2463ffff 	addiu	v1,v1,-1
  405c60:	00108080 	sll	s0,s0,0x2
  405c64:	02308021 	addu	s0,s1,s0
  405c68:	8e04fffc 	lw	a0,-4(s0)
  405c6c:	0c1016dc 	jal	405b70 <__gettext_free_exp>
  405c70:	2610fffc 	addiu	s0,s0,-4
  405c74:	1630fffc 	bne	s1,s0,405c68 <new_exp+0x60>
  405c78:	00000000 	nop
  405c7c:	8fbf0024 	lw	ra,36(sp)
  405c80:	00001025 	move	v0,zero
  405c84:	8fb20020 	lw	s2,32(sp)
  405c88:	8fb1001c 	lw	s1,28(sp)
  405c8c:	8fb00018 	lw	s0,24(sp)
  405c90:	03e00008 	jr	ra
  405c94:	27bd0028 	addiu	sp,sp,40
  405c98:	041146c9 	bal	4177c0 <__libc_malloc>
  405c9c:	24040014 	li	a0,20
  405ca0:	1040ffef 	beqz	v0,405c60 <new_exp+0x58>
  405ca4:	00101880 	sll	v1,s0,0x2
  405ca8:	ac500000 	sw	s0,0(v0)
  405cac:	ac520004 	sw	s2,4(v0)
  405cb0:	02232821 	addu	a1,s1,v1
  405cb4:	00432021 	addu	a0,v0,v1
  405cb8:	2463fffc 	addiu	v1,v1,-4
  405cbc:	8ca5fffc 	lw	a1,-4(a1)
  405cc0:	1460fffb 	bnez	v1,405cb0 <new_exp+0xa8>
  405cc4:	ac850004 	sw	a1,4(a0)
  405cc8:	8fbf0024 	lw	ra,36(sp)
  405ccc:	8fb20020 	lw	s2,32(sp)
  405cd0:	8fb1001c 	lw	s1,28(sp)
  405cd4:	8fb00018 	lw	s0,24(sp)
  405cd8:	03e00008 	jr	ra
  405cdc:	27bd0028 	addiu	sp,sp,40
  405ce0:	8f9980cc 	lw	t9,-32564(gp)
  405ce4:	041146b6 	bal	4177c0 <__libc_malloc>
  405ce8:	24040014 	li	a0,20
  405cec:	1040ffe3 	beqz	v0,405c7c <new_exp+0x74>
  405cf0:	8fbf0024 	lw	ra,36(sp)
  405cf4:	8fb1001c 	lw	s1,28(sp)
  405cf8:	8fb00018 	lw	s0,24(sp)
  405cfc:	ac520004 	sw	s2,4(v0)
  405d00:	ac400000 	sw	zero,0(v0)
  405d04:	8fb20020 	lw	s2,32(sp)
  405d08:	03e00008 	jr	ra
  405d0c:	27bd0028 	addiu	sp,sp,40

00405d10 <__gettextparse>:
  405d10:	3c1c004a 	lui	gp,0x4a
  405d14:	27bdfad8 	addiu	sp,sp,-1320
  405d18:	279ca2b0 	addiu	gp,gp,-23888
  405d1c:	3c070046 	lui	a3,0x46
  405d20:	afb50514 	sw	s5,1300(sp)
  405d24:	3c150046 	lui	s5,0x46
  405d28:	8f828038 	lw	v0,-32712(gp)
  405d2c:	27a3004c 	addiu	v1,sp,76
  405d30:	afb40510 	sw	s4,1296(sp)
  405d34:	3c140046 	lui	s4,0x46
  405d38:	afb10504 	sw	s1,1284(sp)
  405d3c:	27b101dc 	addiu	s1,sp,476
  405d40:	afa20038 	sw	v0,56(sp)
  405d44:	2408fffe 	li	t0,-2
  405d48:	8c420000 	lw	v0,0(v0)
  405d4c:	26945804 	addiu	s4,s4,22532
  405d50:	afb7051c 	sw	s7,1308(sp)
  405d54:	0000b825 	move	s7,zero
  405d58:	afb60518 	sw	s6,1304(sp)
  405d5c:	24f659a8 	addiu	s6,a3,22952
  405d60:	afa204fc 	sw	v0,1276(sp)
  405d64:	3c020046 	lui	v0,0x46
  405d68:	afb20508 	sw	s2,1288(sp)
  405d6c:	241200c8 	li	s2,200
  405d70:	244259a0 	addiu	v0,v0,22944
  405d74:	afb00500 	sw	s0,1280(sp)
  405d78:	afbf0524 	sw	ra,1316(sp)
  405d7c:	00608025 	move	s0,v1
  405d80:	afa20030 	sw	v0,48(sp)
  405d84:	26a2583c 	addiu	v0,s5,22588
  405d88:	afbe0520 	sw	s8,1312(sp)
  405d8c:	0060a825 	move	s5,v1
  405d90:	afb3050c 	sw	s3,1292(sp)
  405d94:	afbc0010 	sw	gp,16(sp)
  405d98:	afa30024 	sw	v1,36(sp)
  405d9c:	a7a0004c 	sh	zero,76(sp)
  405da0:	afa0002c 	sw	zero,44(sp)
  405da4:	afa2001c 	sw	v0,28(sp)
  405da8:	afa40034 	sw	a0,52(sp)
  405dac:	afb10020 	sw	s1,32(sp)
  405db0:	02d71021 	addu	v0,s6,s7
  405db4:	2404fff6 	li	a0,-10
  405db8:	80420000 	lb	v0,0(v0)
  405dbc:	1044006e 	beq	v0,a0,405f78 <__gettextparse+0x268>
  405dc0:	00403025 	move	a2,v0
  405dc4:	2404fffe 	li	a0,-2
  405dc8:	110400da 	beq	t0,a0,406134 <__gettextparse+0x424>
  405dcc:	8fa30034 	lw	v1,52(sp)
  405dd0:	190000bc 	blez	t0,4060c4 <__gettextparse+0x3b4>
  405dd4:	00002025 	move	a0,zero
  405dd8:	3c040046 	lui	a0,0x46
  405ddc:	24845890 	addiu	a0,a0,22672
  405de0:	01042021 	addu	a0,t0,a0
  405de4:	90840000 	lbu	a0,0(a0)
  405de8:	00443021 	addu	a2,v0,a0
  405dec:	2cc50037 	sltiu	a1,a2,55
  405df0:	10a00061 	beqz	a1,405f78 <__gettextparse+0x268>
  405df4:	00d42821 	addu	a1,a2,s4
  405df8:	80a50000 	lb	a1,0(a1)
  405dfc:	14a4005f 	bne	a1,a0,405f7c <__gettextparse+0x26c>
  405e00:	3c040046 	lui	a0,0x46
  405e04:	8fa2001c 	lw	v0,28(sp)
  405e08:	00c23021 	addu	a2,a2,v0
  405e0c:	90d70000 	lbu	s7,0(a2)
  405e10:	16e000ae 	bnez	s7,4060cc <__gettextparse+0x3bc>
  405e14:	8fa2002c 	lw	v0,44(sp)
  405e18:	3c040046 	lui	a0,0x46
  405e1c:	8e220004 	lw	v0,4(s1)
  405e20:	2405fff0 	li	a1,-16
  405e24:	02203025 	move	a2,s1
  405e28:	80845994 	lb	a0,22932(a0)
  405e2c:	86090000 	lh	t1,0(s0)
  405e30:	acc20004 	sw	v0,4(a2)
  405e34:	01241021 	addu	v0,t1,a0
  405e38:	2c440037 	sltiu	a0,v0,55
  405e3c:	10800005 	beqz	a0,405e54 <__gettextparse+0x144>
  405e40:	24d10004 	addiu	s1,a2,4
  405e44:	00542021 	addu	a0,v0,s4
  405e48:	80840000 	lb	a0,0(a0)
  405e4c:	108900cb 	beq	a0,t1,40617c <__gettextparse+0x46c>
  405e50:	8fa3001c 	lw	v1,28(sp)
  405e54:	8fa20030 	lw	v0,48(sp)
  405e58:	00a22821 	addu	a1,a1,v0
  405e5c:	80b70000 	lb	s7,0(a1)
  405e60:	00121040 	sll	v0,s2,0x1
  405e64:	a6170002 	sh	s7,2(s0)
  405e68:	26100002 	addiu	s0,s0,2
  405e6c:	2442fffe 	addiu	v0,v0,-2
  405e70:	02a22021 	addu	a0,s5,v0
  405e74:	0204202b 	sltu	a0,s0,a0
  405e78:	1480003a 	bnez	a0,405f64 <__gettextparse+0x254>
  405e7c:	00000000 	nop
  405e80:	02158023 	subu	s0,s0,s5
  405e84:	afa80028 	sw	t0,40(sp)
  405e88:	2e522710 	sltiu	s2,s2,10000
  405e8c:	00108843 	sra	s1,s0,0x1
  405e90:	12400192 	beqz	s2,4064dc <__gettextparse+0x7cc>
  405e94:	26310001 	addiu	s1,s1,1
  405e98:	24420002 	addiu	v0,v0,2
  405e9c:	8f9980cc 	lw	t9,-32564(gp)
  405ea0:	24042710 	li	a0,10000
  405ea4:	2c522711 	sltiu	s2,v0,10001
  405ea8:	0052200b 	movn	a0,v0,s2
  405eac:	00049840 	sll	s3,a0,0x1
  405eb0:	00809025 	move	s2,a0
  405eb4:	02642021 	addu	a0,s3,a0
  405eb8:	00042040 	sll	a0,a0,0x1
  405ebc:	04114640 	bal	4177c0 <__libc_malloc>
  405ec0:	24840003 	addiu	a0,a0,3
  405ec4:	8fbc0010 	lw	gp,16(sp)
  405ec8:	10400184 	beqz	v0,4064dc <__gettextparse+0x7cc>
  405ecc:	0040f025 	move	s8,v0
  405ed0:	8f99809c 	lw	t9,-32612(gp)
  405ed4:	26060002 	addiu	a2,s0,2
  405ed8:	02a02825 	move	a1,s5
  405edc:	041153f8 	bal	41aec0 <memcpy>
  405ee0:	00402025 	move	a0,v0
  405ee4:	2402fffc 	li	v0,-4
  405ee8:	8fbc0010 	lw	gp,16(sp)
  405eec:	266b0003 	addiu	t3,s3,3
  405ef0:	8fa50020 	lw	a1,32(sp)
  405ef4:	00118880 	sll	s1,s1,0x2
  405ef8:	01625824 	and	t3,t3,v0
  405efc:	03cb5821 	addu	t3,s8,t3
  405f00:	8f99809c 	lw	t9,-32612(gp)
  405f04:	02203025 	move	a2,s1
  405f08:	041153ed 	bal	41aec0 <memcpy>
  405f0c:	01602025 	move	a0,t3
  405f10:	00405825 	move	t3,v0
  405f14:	8fa20024 	lw	v0,36(sp)
  405f18:	8fbc0010 	lw	gp,16(sp)
  405f1c:	12a20008 	beq	s5,v0,405f40 <__gettextparse+0x230>
  405f20:	8fa80028 	lw	t0,40(sp)
  405f24:	8f998054 	lw	t9,-32684(gp)
  405f28:	02a02025 	move	a0,s5
  405f2c:	041147f1 	bal	417ef4 <__free>
  405f30:	afab0020 	sw	t3,32(sp)
  405f34:	8fbc0010 	lw	gp,16(sp)
  405f38:	8fa80028 	lw	t0,40(sp)
  405f3c:	8fab0020 	lw	t3,32(sp)
  405f40:	2673fffe 	addiu	s3,s3,-2
  405f44:	03d08021 	addu	s0,s8,s0
  405f48:	03d39821 	addu	s3,s8,s3
  405f4c:	2631fffc 	addiu	s1,s1,-4
  405f50:	0213982b 	sltu	s3,s0,s3
  405f54:	12600164 	beqz	s3,4064e8 <__gettextparse+0x7d8>
  405f58:	01718821 	addu	s1,t3,s1
  405f5c:	afab0020 	sw	t3,32(sp)
  405f60:	03c0a825 	move	s5,s8
  405f64:	24020009 	li	v0,9
  405f68:	16e2ff91 	bne	s7,v0,405db0 <__gettextparse+0xa0>
  405f6c:	00001025 	move	v0,zero
  405f70:	1000003b 	b	406060 <__gettextparse+0x350>
  405f74:	02a08025 	move	s0,s5
  405f78:	3c040046 	lui	a0,0x46
  405f7c:	24845874 	addiu	a0,a0,22644
  405f80:	02e44821 	addu	t1,s7,a0
  405f84:	91250000 	lbu	a1,0(t1)
  405f88:	14a00023 	bnez	a1,406018 <__gettextparse+0x308>
  405f8c:	2ca6000e 	sltiu	a2,a1,14
  405f90:	8fa3002c 	lw	v1,44(sp)
  405f94:	24040003 	li	a0,3
  405f98:	14640005 	bne	v1,a0,405fb0 <__gettextparse+0x2a0>
  405f9c:	00000000 	nop
  405fa0:	1d000062 	bgtz	t0,40612c <__gettextparse+0x41c>
  405fa4:	00000000 	nop
  405fa8:	110000f4 	beqz	t0,40637c <__gettextparse+0x66c>
  405fac:	00000000 	nop
  405fb0:	2405fff6 	li	a1,-10
  405fb4:	10000007 	b	405fd4 <__gettextparse+0x2c4>
  405fb8:	24060001 	li	a2,1
  405fbc:	12150027 	beq	s0,s5,40605c <__gettextparse+0x34c>
  405fc0:	2631fffc 	addiu	s1,s1,-4
  405fc4:	8602fffe 	lh	v0,-2(s0)
  405fc8:	2610fffe 	addiu	s0,s0,-2
  405fcc:	02c21021 	addu	v0,s6,v0
  405fd0:	80420000 	lb	v0,0(v0)
  405fd4:	1045fff9 	beq	v0,a1,405fbc <__gettextparse+0x2ac>
  405fd8:	24420001 	addiu	v0,v0,1
  405fdc:	2c440037 	sltiu	a0,v0,55
  405fe0:	1080fff6 	beqz	a0,405fbc <__gettextparse+0x2ac>
  405fe4:	00542021 	addu	a0,v0,s4
  405fe8:	80840000 	lb	a0,0(a0)
  405fec:	1486fff3 	bne	a0,a2,405fbc <__gettextparse+0x2ac>
  405ff0:	8fa3001c 	lw	v1,28(sp)
  405ff4:	00431021 	addu	v0,v0,v1
  405ff8:	90570000 	lbu	s7,0(v0)
  405ffc:	12e0ffef 	beqz	s7,405fbc <__gettextparse+0x2ac>
  406000:	8fa2003c 	lw	v0,60(sp)
  406004:	26310004 	addiu	s1,s1,4
  406008:	ae220000 	sw	v0,0(s1)
  40600c:	24020003 	li	v0,3
  406010:	1000ff93 	b	405e60 <__gettextparse+0x150>
  406014:	afa2002c 	sw	v0,44(sp)
  406018:	3c020046 	lui	v0,0x46
  40601c:	244257e4 	addiu	v0,v0,22500
  406020:	00a21021 	addu	v0,a1,v0
  406024:	90440000 	lbu	a0,0(v0)
  406028:	24020001 	li	v0,1
  40602c:	00441023 	subu	v0,v0,a0
  406030:	00021080 	sll	v0,v0,0x2
  406034:	02221021 	addu	v0,s1,v0
  406038:	10c0012e 	beqz	a2,4064f4 <__gettextparse+0x7e4>
  40603c:	8c420000 	lw	v0,0(v0)
  406040:	3c090046 	lui	t1,0x46
  406044:	00053080 	sll	a2,a1,0x2
  406048:	252955e0 	addiu	t1,t1,21984
  40604c:	01263021 	addu	a2,t1,a2
  406050:	8cc60000 	lw	a2,0(a2)
  406054:	00c00008 	jr	a2
  406058:	00000000 	nop
  40605c:	24020001 	li	v0,1
  406060:	8fa30024 	lw	v1,36(sp)
  406064:	12030008 	beq	s0,v1,406088 <__gettextparse+0x378>
  406068:	8fa30038 	lw	v1,56(sp)
  40606c:	8f998054 	lw	t9,-32684(gp)
  406070:	02002025 	move	a0,s0
  406074:	0411479f 	bal	417ef4 <__free>
  406078:	afa2001c 	sw	v0,28(sp)
  40607c:	8fbc0010 	lw	gp,16(sp)
  406080:	8fa2001c 	lw	v0,28(sp)
  406084:	8fa30038 	lw	v1,56(sp)
  406088:	8fa404fc 	lw	a0,1276(sp)
  40608c:	8c630000 	lw	v1,0(v1)
  406090:	1483013e 	bne	a0,v1,40658c <__gettextparse+0x87c>
  406094:	8fbf0524 	lw	ra,1316(sp)
  406098:	8fbe0520 	lw	s8,1312(sp)
  40609c:	8fb7051c 	lw	s7,1308(sp)
  4060a0:	8fb60518 	lw	s6,1304(sp)
  4060a4:	8fb50514 	lw	s5,1300(sp)
  4060a8:	8fb40510 	lw	s4,1296(sp)
  4060ac:	8fb3050c 	lw	s3,1292(sp)
  4060b0:	8fb20508 	lw	s2,1288(sp)
  4060b4:	8fb10504 	lw	s1,1284(sp)
  4060b8:	8fb00500 	lw	s0,1280(sp)
  4060bc:	03e00008 	jr	ra
  4060c0:	27bd0528 	addiu	sp,sp,1320
  4060c4:	1000ff49 	b	405dec <__gettextparse+0xdc>
  4060c8:	00004025 	move	t0,zero
  4060cc:	10400002 	beqz	v0,4060d8 <__gettextparse+0x3c8>
  4060d0:	2442ffff 	addiu	v0,v0,-1
  4060d4:	afa2002c 	sw	v0,44(sp)
  4060d8:	8fa2003c 	lw	v0,60(sp)
  4060dc:	2408fffe 	li	t0,-2
  4060e0:	26310004 	addiu	s1,s1,4
  4060e4:	1000ff5e 	b	405e60 <__gettextparse+0x150>
  4060e8:	ae220000 	sw	v0,0(s1)
  4060ec:	8e290000 	lw	t1,0(s1)
  4060f0:	27a60040 	addiu	a2,sp,64
  4060f4:	8e22fff8 	lw	v0,-8(s1)
  4060f8:	24040002 	li	a0,2
  4060fc:	8e25fffc 	lw	a1,-4(s1)
  406100:	afa80028 	sw	t0,40(sp)
  406104:	afa90044 	sw	t1,68(sp)
  406108:	2610fffa 	addiu	s0,s0,-6
  40610c:	0c101702 	jal	405c08 <new_exp>
  406110:	afa20040 	sw	v0,64(sp)
  406114:	2626fff4 	addiu	a2,s1,-12
  406118:	8fbc0010 	lw	gp,16(sp)
  40611c:	24050002 	li	a1,2
  406120:	8fa80028 	lw	t0,40(sp)
  406124:	1000ff41 	b	405e2c <__gettextparse+0x11c>
  406128:	2404ffff 	li	a0,-1
  40612c:	1000ffa0 	b	405fb0 <__gettextparse+0x2a0>
  406130:	2408fffe 	li	t0,-2
  406134:	8c650000 	lw	a1,0(v1)
  406138:	80a40000 	lb	a0,0(a1)
  40613c:	1080000b 	beqz	a0,40616c <__gettextparse+0x45c>
  406140:	8fa30034 	lw	v1,52(sp)
  406144:	24080020 	li	t0,32
  406148:	240a0009 	li	t2,9
  40614c:	10880003 	beq	a0,t0,40615c <__gettextparse+0x44c>
  406150:	00000000 	nop
  406154:	148a0064 	bne	a0,t2,4062e8 <__gettextparse+0x5d8>
  406158:	24ab0001 	addiu	t3,a1,1
  40615c:	80a40001 	lb	a0,1(a1)
  406160:	1480fffa 	bnez	a0,40614c <__gettextparse+0x43c>
  406164:	24a50001 	addiu	a1,a1,1
  406168:	8fa30034 	lw	v1,52(sp)
  40616c:	00002025 	move	a0,zero
  406170:	00004025 	move	t0,zero
  406174:	1000ff1d 	b	405dec <__gettextparse+0xdc>
  406178:	ac650000 	sw	a1,0(v1)
  40617c:	00431021 	addu	v0,v0,v1
  406180:	1000ff37 	b	405e60 <__gettextparse+0x150>
  406184:	90570000 	lbu	s7,0(v0)
  406188:	8e240000 	lw	a0,0(s1)
  40618c:	1080007b 	beqz	a0,40637c <__gettextparse+0x66c>
  406190:	8fa30034 	lw	v1,52(sp)
  406194:	2626fffc 	addiu	a2,s1,-4
  406198:	2610fffe 	addiu	s0,s0,-2
  40619c:	24050001 	li	a1,1
  4061a0:	ac640004 	sw	a0,4(v1)
  4061a4:	1000ff21 	b	405e2c <__gettextparse+0x11c>
  4061a8:	2404fff6 	li	a0,-10
  4061ac:	8e2afff8 	lw	t2,-8(s1)
  4061b0:	27a60040 	addiu	a2,sp,64
  4061b4:	8e290000 	lw	t1,0(s1)
  4061b8:	24050010 	li	a1,16
  4061bc:	8e22fff0 	lw	v0,-16(s1)
  4061c0:	24040003 	li	a0,3
  4061c4:	afa80028 	sw	t0,40(sp)
  4061c8:	2610fff6 	addiu	s0,s0,-10
  4061cc:	afaa0044 	sw	t2,68(sp)
  4061d0:	afa90048 	sw	t1,72(sp)
  4061d4:	0c101702 	jal	405c08 <new_exp>
  4061d8:	afa20040 	sw	v0,64(sp)
  4061dc:	2626ffec 	addiu	a2,s1,-20
  4061e0:	8fbc0010 	lw	gp,16(sp)
  4061e4:	24050002 	li	a1,2
  4061e8:	8fa80028 	lw	t0,40(sp)
  4061ec:	1000ff0f 	b	405e2c <__gettextparse+0x11c>
  4061f0:	2404ffff 	li	a0,-1
  4061f4:	00003025 	move	a2,zero
  4061f8:	afa80028 	sw	t0,40(sp)
  4061fc:	00002825 	move	a1,zero
  406200:	00002025 	move	a0,zero
  406204:	0c101702 	jal	405c08 <new_exp>
  406208:	2610fffe 	addiu	s0,s0,-2
  40620c:	2626fffc 	addiu	a2,s1,-4
  406210:	8fbc0010 	lw	gp,16(sp)
  406214:	24050002 	li	a1,2
  406218:	8fa80028 	lw	t0,40(sp)
  40621c:	1000ff03 	b	405e2c <__gettextparse+0x11c>
  406220:	2404ffff 	li	a0,-1
  406224:	8e220000 	lw	v0,0(s1)
  406228:	27a60040 	addiu	a2,sp,64
  40622c:	24050002 	li	a1,2
  406230:	afa80028 	sw	t0,40(sp)
  406234:	24040001 	li	a0,1
  406238:	afa20040 	sw	v0,64(sp)
  40623c:	0c101702 	jal	405c08 <new_exp>
  406240:	2610fffc 	addiu	s0,s0,-4
  406244:	2626fff8 	addiu	a2,s1,-8
  406248:	8fbc0010 	lw	gp,16(sp)
  40624c:	24050002 	li	a1,2
  406250:	8fa80028 	lw	t0,40(sp)
  406254:	1000fef5 	b	405e2c <__gettextparse+0x11c>
  406258:	2404ffff 	li	a0,-1
  40625c:	8e290000 	lw	t1,0(s1)
  406260:	27a60040 	addiu	a2,sp,64
  406264:	8e22fff8 	lw	v0,-8(s1)
  406268:	2405000f 	li	a1,15
  40626c:	24040002 	li	a0,2
  406270:	1000ffa4 	b	406104 <__gettextparse+0x3f4>
  406274:	afa80028 	sw	t0,40(sp)
  406278:	8e290000 	lw	t1,0(s1)
  40627c:	27a60040 	addiu	a2,sp,64
  406280:	8e22fff8 	lw	v0,-8(s1)
  406284:	2405000e 	li	a1,14
  406288:	24040002 	li	a0,2
  40628c:	1000ff9d 	b	406104 <__gettextparse+0x3f4>
  406290:	afa80028 	sw	t0,40(sp)
  406294:	8e22fffc 	lw	v0,-4(s1)
  406298:	2626fff4 	addiu	a2,s1,-12
  40629c:	2610fffa 	addiu	s0,s0,-6
  4062a0:	24050002 	li	a1,2
  4062a4:	1000fee1 	b	405e2c <__gettextparse+0x11c>
  4062a8:	2404ffff 	li	a0,-1
  4062ac:	00003025 	move	a2,zero
  4062b0:	afa80028 	sw	t0,40(sp)
  4062b4:	24050001 	li	a1,1
  4062b8:	00002025 	move	a0,zero
  4062bc:	0c101702 	jal	405c08 <new_exp>
  4062c0:	2610fffe 	addiu	s0,s0,-2
  4062c4:	2626fffc 	addiu	a2,s1,-4
  4062c8:	8fbc0010 	lw	gp,16(sp)
  4062cc:	10400080 	beqz	v0,4064d0 <__gettextparse+0x7c0>
  4062d0:	8fa80028 	lw	t0,40(sp)
  4062d4:	8e290000 	lw	t1,0(s1)
  4062d8:	24050002 	li	a1,2
  4062dc:	2404ffff 	li	a0,-1
  4062e0:	1000fed2 	b	405e2c <__gettextparse+0x11c>
  4062e4:	ac490008 	sw	t1,8(v0)
  4062e8:	248afff6 	addiu	t2,a0,-10
  4062ec:	314a00ff 	andi	t2,t2,0xff
  4062f0:	2d4c0073 	sltiu	t4,t2,115
  4062f4:	11800008 	beqz	t4,406318 <__gettextparse+0x608>
  4062f8:	00804025 	move	t0,a0
  4062fc:	3c0c0046 	lui	t4,0x46
  406300:	000a5080 	sll	t2,t2,0x2
  406304:	258c5618 	addiu	t4,t4,22040
  406308:	018a5021 	addu	t2,t4,t2
  40630c:	8d4a0000 	lw	t2,0(t2)
  406310:	01400008 	jr	t2
  406314:	00000000 	nop
  406318:	8fa30034 	lw	v1,52(sp)
  40631c:	24040001 	li	a0,1
  406320:	24080100 	li	t0,256
  406324:	1000feb0 	b	405de8 <__gettextparse+0xd8>
  406328:	ac6b0000 	sw	t3,0(v1)
  40632c:	10000008 	b	406350 <__gettextparse+0x640>
  406330:	80a50001 	lb	a1,1(a1)
  406334:	8fa3003c 	lw	v1,60(sp)
  406338:	256b0001 	addiu	t3,t3,1
  40633c:	00032080 	sll	a0,v1,0x2
  406340:	00832021 	addu	a0,a0,v1
  406344:	00042040 	sll	a0,a0,0x1
  406348:	00852021 	addu	a0,a0,a1
  40634c:	81650000 	lb	a1,0(t3)
  406350:	2483ffd0 	addiu	v1,a0,-48
  406354:	24a4ffd0 	addiu	a0,a1,-48
  406358:	308400ff 	andi	a0,a0,0xff
  40635c:	2c84000a 	sltiu	a0,a0,10
  406360:	1480fff4 	bnez	a0,406334 <__gettextparse+0x624>
  406364:	afa3003c 	sw	v1,60(sp)
  406368:	8fa30034 	lw	v1,52(sp)
  40636c:	2404000b 	li	a0,11
  406370:	24080106 	li	t0,262
  406374:	1000fe9c 	b	405de8 <__gettextparse+0xd8>
  406378:	ac6b0000 	sw	t3,0(v1)
  40637c:	24020001 	li	v0,1
  406380:	1000ff37 	b	406060 <__gettextparse+0x350>
  406384:	02a08025 	move	s0,s5
  406388:	80aa0001 	lb	t2,1(a1)
  40638c:	1544ffe3 	bne	t2,a0,40631c <__gettextparse+0x60c>
  406390:	8fa30034 	lw	v1,52(sp)
  406394:	24ab0002 	addiu	t3,a1,2
  406398:	8fa30034 	lw	v1,52(sp)
  40639c:	1000fe8c 	b	405dd0 <__gettextparse+0xc0>
  4063a0:	ac6b0000 	sw	t3,0(v1)
  4063a4:	8fa30034 	lw	v1,52(sp)
  4063a8:	24040008 	li	a0,8
  4063ac:	24080104 	li	t0,260
  4063b0:	ac6b0000 	sw	t3,0(v1)
  4063b4:	24030006 	li	v1,6
  4063b8:	1000fe8b 	b	405de8 <__gettextparse+0xd8>
  4063bc:	afa3003c 	sw	v1,60(sp)
  4063c0:	8fa30034 	lw	v1,52(sp)
  4063c4:	24040009 	li	a0,9
  4063c8:	24080105 	li	t0,261
  4063cc:	ac6b0000 	sw	t3,0(v1)
  4063d0:	24030003 	li	v1,3
  4063d4:	1000fe84 	b	405de8 <__gettextparse+0xd8>
  4063d8:	afa3003c 	sw	v1,60(sp)
  4063dc:	80a60001 	lb	a2,1(a1)
  4063e0:	2404003d 	li	a0,61
  4063e4:	10c40059 	beq	a2,a0,40654c <__gettextparse+0x83c>
  4063e8:	8fa30034 	lw	v1,52(sp)
  4063ec:	24040007 	li	a0,7
  4063f0:	24080103 	li	t0,259
  4063f4:	ac6b0000 	sw	t3,0(v1)
  4063f8:	24030009 	li	v1,9
  4063fc:	1000fe7a 	b	405de8 <__gettextparse+0xd8>
  406400:	afa3003c 	sw	v1,60(sp)
  406404:	80a60001 	lb	a2,1(a1)
  406408:	2404003d 	li	a0,61
  40640c:	14c4ffc3 	bne	a2,a0,40631c <__gettextparse+0x60c>
  406410:	8fa30034 	lw	v1,52(sp)
  406414:	2403000c 	li	v1,12
  406418:	24a50002 	addiu	a1,a1,2
  40641c:	afa3003c 	sw	v1,60(sp)
  406420:	24040006 	li	a0,6
  406424:	8fa30034 	lw	v1,52(sp)
  406428:	24080102 	li	t0,258
  40642c:	1000fe6e 	b	405de8 <__gettextparse+0xd8>
  406430:	ac650000 	sw	a1,0(v1)
  406434:	8fa30034 	lw	v1,52(sp)
  406438:	24040009 	li	a0,9
  40643c:	24080105 	li	t0,261
  406440:	ac6b0000 	sw	t3,0(v1)
  406444:	24030004 	li	v1,4
  406448:	1000fe67 	b	405de8 <__gettextparse+0xd8>
  40644c:	afa3003c 	sw	v1,60(sp)
  406450:	8fa30034 	lw	v1,52(sp)
  406454:	24040008 	li	a0,8
  406458:	24080104 	li	t0,260
  40645c:	ac6b0000 	sw	t3,0(v1)
  406460:	24030007 	li	v1,7
  406464:	1000fe60 	b	405de8 <__gettextparse+0xd8>
  406468:	afa3003c 	sw	v1,60(sp)
  40646c:	80a60001 	lb	a2,1(a1)
  406470:	2404003d 	li	a0,61
  406474:	10c4002d 	beq	a2,a0,40652c <__gettextparse+0x81c>
  406478:	8fa30034 	lw	v1,52(sp)
  40647c:	24040007 	li	a0,7
  406480:	24080103 	li	t0,259
  406484:	ac6b0000 	sw	t3,0(v1)
  406488:	24030008 	li	v1,8
  40648c:	1000fe56 	b	405de8 <__gettextparse+0xd8>
  406490:	afa3003c 	sw	v1,60(sp)
  406494:	8fa30034 	lw	v1,52(sp)
  406498:	24040009 	li	a0,9
  40649c:	24080105 	li	t0,261
  4064a0:	ac6b0000 	sw	t3,0(v1)
  4064a4:	24030005 	li	v1,5
  4064a8:	1000fe4f 	b	405de8 <__gettextparse+0xd8>
  4064ac:	afa3003c 	sw	v1,60(sp)
  4064b0:	80a60001 	lb	a2,1(a1)
  4064b4:	2404003d 	li	a0,61
  4064b8:	10c4002c 	beq	a2,a0,40656c <__gettextparse+0x85c>
  4064bc:	8fa30034 	lw	v1,52(sp)
  4064c0:	2404000a 	li	a0,10
  4064c4:	24080021 	li	t0,33
  4064c8:	1000fe47 	b	405de8 <__gettextparse+0xd8>
  4064cc:	ac6b0000 	sw	t3,0(v1)
  4064d0:	24050002 	li	a1,2
  4064d4:	1000fe55 	b	405e2c <__gettextparse+0x11c>
  4064d8:	2404ffff 	li	a0,-1
  4064dc:	24020002 	li	v0,2
  4064e0:	1000fedf 	b	406060 <__gettextparse+0x350>
  4064e4:	02a08025 	move	s0,s5
  4064e8:	24020001 	li	v0,1
  4064ec:	1000fedf 	b	40606c <__gettextparse+0x35c>
  4064f0:	03c08025 	move	s0,s8
  4064f4:	3c060046 	lui	a2,0x46
  4064f8:	3c090046 	lui	t1,0x46
  4064fc:	24c657f4 	addiu	a2,a2,22516
  406500:	00a62821 	addu	a1,a1,a2
  406504:	00043080 	sll	a2,a0,0x2
  406508:	00042040 	sll	a0,a0,0x1
  40650c:	90a50000 	lbu	a1,0(a1)
  406510:	02263023 	subu	a2,s1,a2
  406514:	02048023 	subu	s0,s0,a0
  406518:	252459a4 	addiu	a0,t1,22948
  40651c:	24a5fff0 	addiu	a1,a1,-16
  406520:	00a42021 	addu	a0,a1,a0
  406524:	1000fe41 	b	405e2c <__gettextparse+0x11c>
  406528:	80840000 	lb	a0,0(a0)
  40652c:	2403000a 	li	v1,10
  406530:	24a50002 	addiu	a1,a1,2
  406534:	afa3003c 	sw	v1,60(sp)
  406538:	24040007 	li	a0,7
  40653c:	8fa30034 	lw	v1,52(sp)
  406540:	24080103 	li	t0,259
  406544:	1000fe28 	b	405de8 <__gettextparse+0xd8>
  406548:	ac650000 	sw	a1,0(v1)
  40654c:	2403000b 	li	v1,11
  406550:	24a50002 	addiu	a1,a1,2
  406554:	afa3003c 	sw	v1,60(sp)
  406558:	24040007 	li	a0,7
  40655c:	8fa30034 	lw	v1,52(sp)
  406560:	24080103 	li	t0,259
  406564:	1000fe20 	b	405de8 <__gettextparse+0xd8>
  406568:	ac650000 	sw	a1,0(v1)
  40656c:	2403000d 	li	v1,13
  406570:	24a50002 	addiu	a1,a1,2
  406574:	afa3003c 	sw	v1,60(sp)
  406578:	24040006 	li	a0,6
  40657c:	8fa30034 	lw	v1,52(sp)
  406580:	24080102 	li	t0,258
  406584:	1000fe18 	b	405de8 <__gettextparse+0xd8>
  406588:	ac650000 	sw	a1,0(v1)
  40658c:	8f998058 	lw	t9,-32680(gp)
  406590:	0411638b 	bal	41f3c0 <__stack_chk_fail>
  406594:	00000000 	nop
	...

004065a0 <__gettext_extract_plural>:
  4065a0:	3c1c004a 	lui	gp,0x4a
  4065a4:	27bdffb8 	addiu	sp,sp,-72
  4065a8:	279ca2b0 	addiu	gp,gp,-23888
  4065ac:	afb30038 	sw	s3,56(sp)
  4065b0:	8f938038 	lw	s3,-32712(gp)
  4065b4:	afb10030 	sw	s1,48(sp)
  4065b8:	00a08825 	move	s1,a1
  4065bc:	afb0002c 	sw	s0,44(sp)
  4065c0:	00c08025 	move	s0,a2
  4065c4:	afbf0044 	sw	ra,68(sp)
  4065c8:	afb50040 	sw	s5,64(sp)
  4065cc:	afb4003c 	sw	s4,60(sp)
  4065d0:	afb20034 	sw	s2,52(sp)
  4065d4:	afbc0010 	sw	gp,16(sp)
  4065d8:	8e620000 	lw	v0,0(s3)
  4065dc:	afa20024 	sw	v0,36(sp)
  4065e0:	1080003a 	beqz	a0,4066cc <__gettext_extract_plural+0x12c>
  4065e4:	3c150042 	lui	s5,0x42
  4065e8:	3c050046 	lui	a1,0x46
  4065ec:	26b5a40c 	addiu	s5,s5,-23540
  4065f0:	24a559c4 	addiu	a1,a1,22980
  4065f4:	02a0c825 	move	t9,s5
  4065f8:	04114f84 	bal	41a40c <strstr>
  4065fc:	0080a025 	move	s4,a0
  406600:	8fbc0010 	lw	gp,16(sp)
  406604:	10400031 	beqz	v0,4066cc <__gettext_extract_plural+0x12c>
  406608:	00409025 	move	s2,v0
  40660c:	3c050046 	lui	a1,0x46
  406610:	02802025 	move	a0,s4
  406614:	02a0c825 	move	t9,s5
  406618:	04114f7c 	bal	41a40c <strstr>
  40661c:	24a559cc 	addiu	a1,a1,22988
  406620:	1040002a 	beqz	v0,4066cc <__gettext_extract_plural+0x12c>
  406624:	8fbc0010 	lw	gp,16(sp)
  406628:	80470009 	lb	a3,9(v0)
  40662c:	10e00027 	beqz	a3,4066cc <__gettext_extract_plural+0x12c>
  406630:	24540009 	addiu	s4,v0,9
  406634:	8f8283b4 	lw	v0,-31820(gp)
  406638:	7c03e83b 	rdhwr	v1,$29
  40663c:	00431021 	addu	v0,v0,v1
  406640:	10000004 	b	406654 <__gettext_extract_plural+0xb4>
  406644:	8c440000 	lw	a0,0(v0)
  406648:	82870001 	lb	a3,1(s4)
  40664c:	10e0001f 	beqz	a3,4066cc <__gettext_extract_plural+0x12c>
  406650:	26940001 	addiu	s4,s4,1
  406654:	30e700ff 	andi	a3,a3,0xff
  406658:	00071040 	sll	v0,a3,0x1
  40665c:	00821021 	addu	v0,a0,v0
  406660:	94430000 	lhu	v1,0(v0)
  406664:	30630020 	andi	v1,v1,0x20
  406668:	1460fff7 	bnez	v1,406648 <__gettext_extract_plural+0xa8>
  40666c:	24e7ffd0 	addiu	a3,a3,-48
  406670:	2ce7000a 	sltiu	a3,a3,10
  406674:	10e00015 	beqz	a3,4066cc <__gettext_extract_plural+0x12c>
  406678:	3c190040 	lui	t9,0x40
  40667c:	2406000a 	li	a2,10
  406680:	27a50018 	addiu	a1,sp,24
  406684:	27397800 	addiu	t9,t9,30720
  406688:	0411045d 	bal	407800 <__strtoul>
  40668c:	02802025 	move	a0,s4
  406690:	8fa30018 	lw	v1,24(sp)
  406694:	1074000d 	beq	v1,s4,4066cc <__gettext_extract_plural+0x12c>
  406698:	8fbc0010 	lw	gp,16(sp)
  40669c:	3c190040 	lui	t9,0x40
  4066a0:	ae020000 	sw	v0,0(s0)
  4066a4:	26520007 	addiu	s2,s2,7
  4066a8:	27a4001c 	addiu	a0,sp,28
  4066ac:	27395d10 	addiu	t9,t9,23824
  4066b0:	0411fd97 	bal	405d10 <__gettextparse>
  4066b4:	afb2001c 	sw	s2,28(sp)
  4066b8:	14400004 	bnez	v0,4066cc <__gettext_extract_plural+0x12c>
  4066bc:	8fbc0010 	lw	gp,16(sp)
  4066c0:	8fa20020 	lw	v0,32(sp)
  4066c4:	10000006 	b	4066e0 <__gettext_extract_plural+0x140>
  4066c8:	ae220000 	sw	v0,0(s1)
  4066cc:	3c020049 	lui	v0,0x49
  4066d0:	2442e948 	addiu	v0,v0,-5816
  4066d4:	ae220000 	sw	v0,0(s1)
  4066d8:	24020002 	li	v0,2
  4066dc:	ae020000 	sw	v0,0(s0)
  4066e0:	8fa30024 	lw	v1,36(sp)
  4066e4:	8e620000 	lw	v0,0(s3)
  4066e8:	14620009 	bne	v1,v0,406710 <__gettext_extract_plural+0x170>
  4066ec:	8fbf0044 	lw	ra,68(sp)
  4066f0:	8fb50040 	lw	s5,64(sp)
  4066f4:	8fb4003c 	lw	s4,60(sp)
  4066f8:	8fb30038 	lw	s3,56(sp)
  4066fc:	8fb20034 	lw	s2,52(sp)
  406700:	8fb10030 	lw	s1,48(sp)
  406704:	8fb0002c 	lw	s0,44(sp)
  406708:	03e00008 	jr	ra
  40670c:	27bd0048 	addiu	sp,sp,72
  406710:	8f998058 	lw	t9,-32680(gp)
  406714:	0411632a 	bal	41f3c0 <__stack_chk_fail>
  406718:	00000000 	nop
  40671c:	00000000 	nop

00406720 <__hash_string>:
  406720:	80820000 	lb	v0,0(a0)
  406724:	10400013 	beqz	v0,406774 <__hash_string+0x54>
  406728:	24840001 	addiu	a0,a0,1
  40672c:	3c07f000 	lui	a3,0xf000
  406730:	304200ff 	andi	v0,v0,0xff
  406734:	80830000 	lb	v1,0(a0)
  406738:	00023100 	sll	a2,v0,0x4
  40673c:	24840001 	addiu	a0,a0,1
  406740:	1060000c 	beqz	v1,406774 <__hash_string+0x54>
  406744:	306500ff 	andi	a1,v1,0xff
  406748:	00a61021 	addu	v0,a1,a2
  40674c:	00471824 	and	v1,v0,a3
  406750:	7c45d800 	ext	a1,v0,0x0,0x1c
  406754:	1060fff7 	beqz	v1,406734 <__hash_string+0x14>
  406758:	00033602 	srl	a2,v1,0x18
  40675c:	80830000 	lb	v1,0(a0)
  406760:	00c51026 	xor	v0,a2,a1
  406764:	00023100 	sll	a2,v0,0x4
  406768:	24840001 	addiu	a0,a0,1
  40676c:	1460fff6 	bnez	v1,406748 <__hash_string+0x28>
  406770:	306500ff 	andi	a1,v1,0xff
  406774:	03e00008 	jr	ra
  406778:	00000000 	nop
  40677c:	00000000 	nop

00406780 <_setjmp>:
  406780:	3c1c004a 	lui	gp,0x4a
  406784:	279ca2b0 	addiu	gp,gp,-23888
  406788:	8f9980fc 	lw	t9,-32516(gp)
  40678c:	03200008 	jr	t9
  406790:	00002825 	move	a1,zero
	...

004067a0 <raise>:
  4067a0:	3c1c004a 	lui	gp,0x4a
  4067a4:	27bdfed0 	addiu	sp,sp,-304
  4067a8:	279ca2b0 	addiu	gp,gp,-23888
  4067ac:	3c020046 	lui	v0,0x46
  4067b0:	afb10124 	sw	s1,292(sp)
  4067b4:	27a3009c 	addiu	v1,sp,156
  4067b8:	8f918038 	lw	s1,-32712(gp)
  4067bc:	24425a10 	addiu	v0,v0,23056
  4067c0:	afb00120 	sw	s0,288(sp)
  4067c4:	00808025 	move	s0,a0
  4067c8:	24460080 	addiu	a2,v0,128
  4067cc:	afbf012c 	sw	ra,300(sp)
  4067d0:	afb20128 	sw	s2,296(sp)
  4067d4:	afbc0010 	sw	gp,16(sp)
  4067d8:	8e250000 	lw	a1,0(s1)
  4067dc:	afa5011c 	sw	a1,284(sp)
  4067e0:	8c480000 	lw	t0,0(v0)
  4067e4:	24420010 	addiu	v0,v0,16
  4067e8:	24630010 	addiu	v1,v1,16
  4067ec:	ac68fff0 	sw	t0,-16(v1)
  4067f0:	8c47fff4 	lw	a3,-12(v0)
  4067f4:	8c45fff8 	lw	a1,-8(v0)
  4067f8:	8c44fffc 	lw	a0,-4(v0)
  4067fc:	ac67fff4 	sw	a3,-12(v1)
  406800:	ac65fff8 	sw	a1,-8(v1)
  406804:	1446fff6 	bne	v0,a2,4067e0 <raise+0x40>
  406808:	ac64fffc 	sw	a0,-4(v1)
  40680c:	2402fffe 	li	v0,-2
  406810:	27b2001c 	addiu	s2,sp,28
  406814:	afa200a0 	sw	v0,160(sp)
  406818:	3c027fff 	lui	v0,0x7fff
  40681c:	24040001 	li	a0,1
  406820:	3442ffff 	ori	v0,v0,0xffff
  406824:	27a5009c 	addiu	a1,sp,156
  406828:	afa2009c 	sw	v0,156(sp)
  40682c:	24070010 	li	a3,16
  406830:	02403025 	move	a2,s2
  406834:	24021063 	li	v0,4195
  406838:	0000000c 	syscall
  40683c:	24020fb4 	li	v0,4020
  406840:	0000000c 	syscall
  406844:	00402025 	move	a0,v0
  406848:	2402107e 	li	v0,4222
  40684c:	0000000c 	syscall
  406850:	00402825 	move	a1,v0
  406854:	02003025 	move	a2,s0
  406858:	240210aa 	li	v0,4266
  40685c:	0000000c 	syscall
  406860:	14e00011 	bnez	a3,4068a8 <raise+0x108>
  406864:	00408025 	move	s0,v0
  406868:	24040003 	li	a0,3
  40686c:	00003025 	move	a2,zero
  406870:	24070010 	li	a3,16
  406874:	02402825 	move	a1,s2
  406878:	24021063 	li	v0,4195
  40687c:	0000000c 	syscall
  406880:	8fa3011c 	lw	v1,284(sp)
  406884:	8e220000 	lw	v0,0(s1)
  406888:	1462000d 	bne	v1,v0,4068c0 <raise+0x120>
  40688c:	8fbf012c 	lw	ra,300(sp)
  406890:	02001025 	move	v0,s0
  406894:	8fb20128 	lw	s2,296(sp)
  406898:	8fb10124 	lw	s1,292(sp)
  40689c:	8fb00120 	lw	s0,288(sp)
  4068a0:	03e00008 	jr	ra
  4068a4:	27bd0130 	addiu	sp,sp,304
  4068a8:	8f8283e4 	lw	v0,-31772(gp)
  4068ac:	7c03e83b 	rdhwr	v1,$29
  4068b0:	00431021 	addu	v0,v0,v1
  4068b4:	ac500000 	sw	s0,0(v0)
  4068b8:	1000ffeb 	b	406868 <raise+0xc8>
  4068bc:	2410ffff 	li	s0,-1
  4068c0:	8f998058 	lw	t9,-32680(gp)
  4068c4:	041162be 	bal	41f3c0 <__stack_chk_fail>
  4068c8:	00000000 	nop
  4068cc:	00000000 	nop

004068d0 <msort_with_tmp.part.0>:
  4068d0:	27bdffb8 	addiu	sp,sp,-72
  4068d4:	8c830000 	lw	v1,0(a0)
  4068d8:	3c1c004a 	lui	gp,0x4a
  4068dc:	24020001 	li	v0,1
  4068e0:	afb20028 	sw	s2,40(sp)
  4068e4:	00069042 	srl	s2,a2,0x1
  4068e8:	279ca2b0 	addiu	gp,gp,-23888
  4068ec:	afb7003c 	sw	s7,60(sp)
  4068f0:	72433802 	mul	a3,s2,v1
  4068f4:	afb60038 	sw	s6,56(sp)
  4068f8:	afb40030 	sw	s4,48(sp)
  4068fc:	00a0b825 	move	s7,a1
  406900:	afb10024 	sw	s1,36(sp)
  406904:	0080a025 	move	s4,a0
  406908:	00d28823 	subu	s1,a2,s2
  40690c:	afbf0044 	sw	ra,68(sp)
  406910:	afbe0040 	sw	s8,64(sp)
  406914:	afb50034 	sw	s5,52(sp)
  406918:	afb3002c 	sw	s3,44(sp)
  40691c:	00e5b021 	addu	s6,a3,a1
  406920:	afb00020 	sw	s0,32(sp)
  406924:	afbc0010 	sw	gp,16(sp)
  406928:	12420004 	beq	s2,v0,40693c <msort_with_tmp.part.0+0x6c>
  40692c:	afa6001c 	sw	a2,28(sp)
  406930:	0c101a34 	jal	4068d0 <msort_with_tmp.part.0>
  406934:	02403025 	move	a2,s2
  406938:	8fbc0010 	lw	gp,16(sp)
  40693c:	2e220002 	sltiu	v0,s1,2
  406940:	14400005 	bnez	v0,406958 <msort_with_tmp.part.0+0x88>
  406944:	02203025 	move	a2,s1
  406948:	02c02825 	move	a1,s6
  40694c:	0c101a34 	jal	4068d0 <msort_with_tmp.part.0>
  406950:	02802025 	move	a0,s4
  406954:	8fbc0010 	lw	gp,16(sp)
  406958:	8e830008 	lw	v1,8(s4)
  40695c:	24040002 	li	a0,2
  406960:	8e820004 	lw	v0,4(s4)
  406964:	8e900010 	lw	s0,16(s4)
  406968:	8e930000 	lw	s3,0(s4)
  40696c:	8e95000c 	lw	s5,12(s4)
  406970:	1044008e 	beq	v0,a0,406bac <msort_with_tmp.part.0+0x2dc>
  406974:	afa30018 	sw	v1,24(sp)
  406978:	2c440003 	sltiu	a0,v0,3
  40697c:	10800032 	beqz	a0,406a48 <msort_with_tmp.part.0+0x178>
  406980:	00000000 	nop
  406984:	1040001f 	beqz	v0,406a04 <msort_with_tmp.part.0+0x134>
  406988:	02e0f025 	move	s8,s7
  40698c:	12200010 	beqz	s1,4069d0 <msort_with_tmp.part.0+0x100>
  406990:	02c02825 	move	a1,s6
  406994:	8fb90018 	lw	t9,24(sp)
  406998:	03c02025 	move	a0,s8
  40699c:	0320f809 	jalr	t9
  4069a0:	02a03025 	move	a2,s5
  4069a4:	18400077 	blez	v0,406b84 <msort_with_tmp.part.0+0x2b4>
  4069a8:	8fbc0010 	lw	gp,16(sp)
  4069ac:	8ec50004 	lw	a1,4(s6)
  4069b0:	26100008 	addiu	s0,s0,8
  4069b4:	8ec40000 	lw	a0,0(s6)
  4069b8:	2631ffff 	addiu	s1,s1,-1
  4069bc:	26d60008 	addiu	s6,s6,8
  4069c0:	ae05fffc 	sw	a1,-4(s0)
  4069c4:	ae04fff8 	sw	a0,-8(s0)
  4069c8:	1620fff2 	bnez	s1,406994 <msort_with_tmp.part.0+0xc4>
  4069cc:	02c02825 	move	a1,s6
  4069d0:	72723002 	mul	a2,s3,s2
  4069d4:	8f99809c 	lw	t9,-32612(gp)
  4069d8:	03c02825 	move	a1,s8
  4069dc:	04115138 	bal	41aec0 <memcpy>
  4069e0:	02002025 	move	a0,s0
  4069e4:	10000039 	b	406acc <msort_with_tmp.part.0+0x1fc>
  4069e8:	8fbc0010 	lw	gp,16(sp)
  4069ec:	8fc20000 	lw	v0,0(s8)
  4069f0:	2652ffff 	addiu	s2,s2,-1
  4069f4:	26100004 	addiu	s0,s0,4
  4069f8:	27de0004 	addiu	s8,s8,4
  4069fc:	12400030 	beqz	s2,406ac0 <msort_with_tmp.part.0+0x1f0>
  406a00:	ae02fffc 	sw	v0,-4(s0)
  406a04:	1220fff2 	beqz	s1,4069d0 <msort_with_tmp.part.0+0x100>
  406a08:	02c02825 	move	a1,s6
  406a0c:	8fb90018 	lw	t9,24(sp)
  406a10:	03c02025 	move	a0,s8
  406a14:	0320f809 	jalr	t9
  406a18:	02a03025 	move	a2,s5
  406a1c:	1840fff3 	blez	v0,4069ec <msort_with_tmp.part.0+0x11c>
  406a20:	8fbc0010 	lw	gp,16(sp)
  406a24:	8ec20000 	lw	v0,0(s6)
  406a28:	2631ffff 	addiu	s1,s1,-1
  406a2c:	26d60004 	addiu	s6,s6,4
  406a30:	26100004 	addiu	s0,s0,4
  406a34:	02c02825 	move	a1,s6
  406a38:	1620fff4 	bnez	s1,406a0c <msort_with_tmp.part.0+0x13c>
  406a3c:	ae02fffc 	sw	v0,-4(s0)
  406a40:	1000ffe4 	b	4069d4 <msort_with_tmp.part.0+0x104>
  406a44:	72723002 	mul	a2,s3,s2
  406a48:	24040003 	li	a0,3
  406a4c:	14440037 	bne	v0,a0,406b2c <msort_with_tmp.part.0+0x25c>
  406a50:	02e0f025 	move	s8,s7
  406a54:	1220ffde 	beqz	s1,4069d0 <msort_with_tmp.part.0+0x100>
  406a58:	02a03025 	move	a2,s5
  406a5c:	8fc40000 	lw	a0,0(s8)
  406a60:	8fb90018 	lw	t9,24(sp)
  406a64:	0320f809 	jalr	t9
  406a68:	8ec50000 	lw	a1,0(s6)
  406a6c:	1840000e 	blez	v0,406aa8 <msort_with_tmp.part.0+0x1d8>
  406a70:	8fbc0010 	lw	gp,16(sp)
  406a74:	8ec20000 	lw	v0,0(s6)
  406a78:	2631ffff 	addiu	s1,s1,-1
  406a7c:	26100004 	addiu	s0,s0,4
  406a80:	26d60004 	addiu	s6,s6,4
  406a84:	02a03025 	move	a2,s5
  406a88:	1220ffd1 	beqz	s1,4069d0 <msort_with_tmp.part.0+0x100>
  406a8c:	ae02fffc 	sw	v0,-4(s0)
  406a90:	8fc40000 	lw	a0,0(s8)
  406a94:	8fb90018 	lw	t9,24(sp)
  406a98:	0320f809 	jalr	t9
  406a9c:	8ec50000 	lw	a1,0(s6)
  406aa0:	1c40fff4 	bgtz	v0,406a74 <msort_with_tmp.part.0+0x1a4>
  406aa4:	8fbc0010 	lw	gp,16(sp)
  406aa8:	8fc20000 	lw	v0,0(s8)
  406aac:	2652ffff 	addiu	s2,s2,-1
  406ab0:	26100004 	addiu	s0,s0,4
  406ab4:	27de0004 	addiu	s8,s8,4
  406ab8:	1640ffe6 	bnez	s2,406a54 <msort_with_tmp.part.0+0x184>
  406abc:	ae02fffc 	sw	v0,-4(s0)
  406ac0:	8fa2001c 	lw	v0,28(sp)
  406ac4:	00511023 	subu	v0,v0,s1
  406ac8:	afa2001c 	sw	v0,28(sp)
  406acc:	8fa2001c 	lw	v0,28(sp)
  406ad0:	02e02025 	move	a0,s7
  406ad4:	8e850010 	lw	a1,16(s4)
  406ad8:	8fbf0044 	lw	ra,68(sp)
  406adc:	72623002 	mul	a2,s3,v0
  406ae0:	8fbe0040 	lw	s8,64(sp)
  406ae4:	8fb7003c 	lw	s7,60(sp)
  406ae8:	8fb60038 	lw	s6,56(sp)
  406aec:	8fb50034 	lw	s5,52(sp)
  406af0:	8fb40030 	lw	s4,48(sp)
  406af4:	8fb3002c 	lw	s3,44(sp)
  406af8:	8fb20028 	lw	s2,40(sp)
  406afc:	8fb10024 	lw	s1,36(sp)
  406b00:	8fb00020 	lw	s0,32(sp)
  406b04:	8f99809c 	lw	t9,-32612(gp)
  406b08:	100050ed 	b	41aec0 <memcpy>
  406b0c:	27bd0048 	addiu	sp,sp,72
  406b10:	03c02825 	move	a1,s8
  406b14:	041150a6 	bal	41adb0 <mempcpy>
  406b18:	2652ffff 	addiu	s2,s2,-1
  406b1c:	8fbc0010 	lw	gp,16(sp)
  406b20:	03d3f021 	addu	s8,s8,s3
  406b24:	1240ffe6 	beqz	s2,406ac0 <msort_with_tmp.part.0+0x1f0>
  406b28:	00408025 	move	s0,v0
  406b2c:	1220ffa8 	beqz	s1,4069d0 <msort_with_tmp.part.0+0x100>
  406b30:	02c02825 	move	a1,s6
  406b34:	8fb90018 	lw	t9,24(sp)
  406b38:	03c02025 	move	a0,s8
  406b3c:	0320f809 	jalr	t9
  406b40:	02a03025 	move	a2,s5
  406b44:	02c02825 	move	a1,s6
  406b48:	8fbc0010 	lw	gp,16(sp)
  406b4c:	02002025 	move	a0,s0
  406b50:	02603025 	move	a2,s3
  406b54:	8f8880e8 	lw	t0,-32536(gp)
  406b58:	1840ffed 	blez	v0,406b10 <msort_with_tmp.part.0+0x240>
  406b5c:	0100c825 	move	t9,t0
  406b60:	04115093 	bal	41adb0 <mempcpy>
  406b64:	02d3b021 	addu	s6,s6,s3
  406b68:	2631ffff 	addiu	s1,s1,-1
  406b6c:	8fbc0010 	lw	gp,16(sp)
  406b70:	00408025 	move	s0,v0
  406b74:	1620ffef 	bnez	s1,406b34 <msort_with_tmp.part.0+0x264>
  406b78:	02c02825 	move	a1,s6
  406b7c:	1000ff95 	b	4069d4 <msort_with_tmp.part.0+0x104>
  406b80:	72723002 	mul	a2,s3,s2
  406b84:	8fc50004 	lw	a1,4(s8)
  406b88:	26100008 	addiu	s0,s0,8
  406b8c:	8fc40000 	lw	a0,0(s8)
  406b90:	2652ffff 	addiu	s2,s2,-1
  406b94:	27de0008 	addiu	s8,s8,8
  406b98:	ae05fffc 	sw	a1,-4(s0)
  406b9c:	1640ff7b 	bnez	s2,40698c <msort_with_tmp.part.0+0xbc>
  406ba0:	ae04fff8 	sw	a0,-8(s0)
  406ba4:	1000ffc7 	b	406ac4 <msort_with_tmp.part.0+0x1f4>
  406ba8:	8fa2001c 	lw	v0,28(sp)
  406bac:	02e0f025 	move	s8,s7
  406bb0:	1220ff87 	beqz	s1,4069d0 <msort_with_tmp.part.0+0x100>
  406bb4:	8fb90018 	lw	t9,24(sp)
  406bb8:	02a03025 	move	a2,s5
  406bbc:	02c02825 	move	a1,s6
  406bc0:	0320f809 	jalr	t9
  406bc4:	03c02025 	move	a0,s8
  406bc8:	02133021 	addu	a2,s0,s3
  406bcc:	18400012 	blez	v0,406c18 <msort_with_tmp.part.0+0x348>
  406bd0:	8fbc0010 	lw	gp,16(sp)
  406bd4:	02c01025 	move	v0,s6
  406bd8:	2631ffff 	addiu	s1,s1,-1
  406bdc:	02d3b021 	addu	s6,s6,s3
  406be0:	00d32023 	subu	a0,a2,s3
  406be4:	0086202b 	sltu	a0,a0,a2
  406be8:	10800007 	beqz	a0,406c08 <msort_with_tmp.part.0+0x338>
  406bec:	00000000 	nop
  406bf0:	8c450000 	lw	a1,0(v0)
  406bf4:	26100004 	addiu	s0,s0,4
  406bf8:	24420004 	addiu	v0,v0,4
  406bfc:	0206202b 	sltu	a0,s0,a2
  406c00:	1480fffb 	bnez	a0,406bf0 <msort_with_tmp.part.0+0x320>
  406c04:	ae05fffc 	sw	a1,-4(s0)
  406c08:	1240ffae 	beqz	s2,406ac4 <msort_with_tmp.part.0+0x1f4>
  406c0c:	8fa2001c 	lw	v0,28(sp)
  406c10:	1000ffe7 	b	406bb0 <msort_with_tmp.part.0+0x2e0>
  406c14:	00c08025 	move	s0,a2
  406c18:	03c01025 	move	v0,s8
  406c1c:	2652ffff 	addiu	s2,s2,-1
  406c20:	1000ffef 	b	406be0 <msort_with_tmp.part.0+0x310>
  406c24:	03d3f021 	addu	s8,s8,s3

00406c28 <__qsort_r>:
  406c28:	3c1c004a 	lui	gp,0x4a
  406c2c:	27bdff90 	addiu	sp,sp,-112
  406c30:	279ca2b0 	addiu	gp,gp,-23888
  406c34:	afbe0068 	sw	s8,104(sp)
  406c38:	03a0f025 	move	s8,sp
  406c3c:	8f828038 	lw	v0,-32712(gp)
  406c40:	afb40058 	sw	s4,88(sp)
  406c44:	2cd40021 	sltiu	s4,a2,33
  406c48:	afb70064 	sw	s7,100(sp)
  406c4c:	afc20028 	sw	v0,40(s8)
  406c50:	afb5005c 	sw	s5,92(sp)
  406c54:	00c0a825 	move	s5,a2
  406c58:	afb30054 	sw	s3,84(sp)
  406c5c:	00a09825 	move	s3,a1
  406c60:	afb20050 	sw	s2,80(sp)
  406c64:	00809025 	move	s2,a0
  406c68:	afb1004c 	sw	s1,76(sp)
  406c6c:	00e08825 	move	s1,a3
  406c70:	afbf006c 	sw	ra,108(sp)
  406c74:	afb60060 	sw	s6,96(sp)
  406c78:	afb00048 	sw	s0,72(sp)
  406c7c:	afbc0018 	sw	gp,24(sp)
  406c80:	8c420000 	lw	v0,0(v0)
  406c84:	8fd70080 	lw	s7,128(s8)
  406c88:	afc20044 	sw	v0,68(s8)
  406c8c:	1280007c 	beqz	s4,406e80 <__qsort_r+0x258>
